(lp0
(i__main__
Park
p1
(dp2
S'description'
p3
S'Lorem ipsum dolor sit amet, consectetur adipiscing elit. Praesent sit amet molestie libero. Vivamus ullamcorper est vel blandit pellentesque. Sed eu purus ac neque fermentum eleifend et eget velit. Ut neque ipsum, vehicula et tortor ut, imperdiet tempus dui. Cras scelerisque elementum commodo.'
p4
sS'lon'
p5
S'-80.274627'
p6
sS'summary'
p7
S'Community Park'
p8
sS'address'
p9
S'55 Bailey Avenue'
p10
sS'lat'
p11
S'43.558561'
p12
sS'name'
p13
S'Bailey Park'
p14
sba(i__main__
Park
p15
(dp16
g3
g4
sg5
S'-80.205792'
p17
sg7
S'Neighbourhood Park'
p18
sg9
S'52 Bathgate Drive'
p19
sg11
S'43.520464'
p20
sg13
S'Bathgate Drive Park'
p21
sba(i__main__
Park
p22
(dp23
g3
g4
sg5
S'-80.257454'
p24
sg7
S'Neighbourhood Park'
p25
sg9
S'55 Carere Crescent'
p26
sg11
S'43.582723'
p27
sg13
S'Beverley Robson Park'
p28
sba(i__main__
Park
p29
(dp30
g3
g4
sg5
S'-80.255464'
p31
sg7
S'Neighbourhood Park'
p32
sg9
S'601 Woodlawn Road East'
p33
sg11
S'43.58071'
p34
sg13
S'Brant Avenue Park'
p35
sba(i__main__
Park
p36
(dp37
g3
g4
sg5
S'-80.243543'
p38
sg7
S'Community Park'
p39
sg9
S'220 Bristol Street East'
p40
sg11
S'43.54651'
p41
sg13
S'Bristol Street Park'
p42
sba(i__main__
Park
p43
(dp44
g3
g4
sg5
S'-80.250666'
p45
sg7
S'Neighbourhood Park'
p46
sg9
S'13 Walnut Drive'
p47
sg11
S'43.562958'
p48
sg13
S'Bullfrog Pond Park'
p49
sba(i__main__
Park
p50
(dp51
g3
g4
sg5
S'-80.280827'
p52
sg7
S'Neighbourhood Park'
p53
sg9
S'25 Burns Drive'
p54
sg11
S'43.557144'
p55
sg13
S'Burns Drive Park'
p56
sba(i__main__
Park
p57
(dp58
g3
g4
sg5
S'-80.243296'
p59
sg7
S'Neighbourhood Park'
p60
sg9
S'1 Fletcher Court'
p61
sg11
S'43.569382'
p62
sg13
S'Carter Park'
p63
sba(i__main__
Park
p64
(dp65
g3
g4
sg5
S'-80.272823'
p66
sg7
S'Community Park'
p67
sg9
S'50 Castlebury Drive'
p68
sg11
S'43.52851'
p69
sg13
S'Castlebury Drive Park'
p70
sba(i__main__
Park
p71
(dp72
g3
g4
sg5
S'-80.220344'
p73
sg7
S'Neighbourhood Park'
p74
sg9
S'32 Cedarvale Avenue'
p75
sg11
S'43.560792'
p76
sg13
S'Cedarvale Park'
p77
sba(i__main__
Park
p78
(dp79
g3
g4
sg5
S'-80.249743'
p80
sg7
S'Regional Park'
p81
sg9
S'373/ 377 College Avenue West'
p82
sg11
S'43.519502'
p83
sg13
S'Centennial Park'
p84
sba(i__main__
Park
p85
(dp86
g3
g4
sg5
S'-80.189013'
p87
sg7
S'Neighbourhood Park'
p88
sg9
S'22 Eugene Drive'
p89
sg11
S'43.504213'
p90
sg13
S'Clair Park'
p91
sba(i__main__
Park
p92
(dp93
g3
g4
sg5
S'-80.262817'
p94
sg7
S'Community Park'
p95
sg9
S'508 Woolwich Street'
p96
sg11
S'43.555931'
p97
sg13
S'Cnr Spurline Park'
p98
sba(i__main__
Park
p99
(dp100
g3
g4
sg5
S'-80.18172'
p101
sg7
S'Community Park'
p102
sg9
S'181 Colonial Drive'
p103
sg11
S'43.517435'
p104
sg13
S'Colonial Drive Park'
p105
sba(i__main__
Park
p106
(dp107
g3
g4
sg5
S'-80.256012'
p108
sg7
S'Conservation Lands'
p109
sg9
S'96 Dovercliffe Road'
p110
sg11
S'43.511448'
p111
sg13
S'Crane Park'
p112
sba(i__main__
Park
p113
(dp114
g3
g4
sg5
S'-80.251943'
p115
sg7
S'Neighbourhood Park'
p116
sg9
S'40 Dakota Drive'
p117
sg11
S'43.573539'
p118
sg13
S'Dakota Park'
p119
sba(i__main__
Park
p120
(dp121
g3
g4
sg5
S'-80.279668'
p122
sg7
S'Neighbourhood Park'
p123
sg9
S'18 Deerpath Drive'
p124
sg11
S'43.526276'
p125
sg13
S'Deerpath Drive Park'
p126
sba(i__main__
Park
p127
(dp128
g3
g4
sg5
S'-80.253459'
p129
sg7
S'Community Park'
p130
sg9
S'38 Dovercliffe Road'
p131
sg11
S'43.512899'
p132
sg13
S'Dovercliffe Park'
p133
sba(i__main__
Park
p134
(dp135
g3
g4
sg5
S'-80.271083'
p136
sg7
S'Neighbourhood Park'
p137
sg9
S'29 Drew Street'
p138
sg11
S'43.541947'
p139
sg13
S'Drew Park'
p140
sba(i__main__
Park
p141
(dp142
g3
g4
sg5
S'-80.24616'
p143
sg7
S'Neighbourhood Park'
p144
sg9
S'10 Drummond Place'
p145
sg11
S'43.567123'
p146
sg13
S'Drummond Park'
p147
sba(i__main__
Park
p148
(dp149
g3
g4
sg5
S'-80.291961'
p150
sg7
S'Neighbourhood Park'
p151
sg9
S'46 Imperial Road North'
p152
sg11
S'43.528631'
p153
sg13
S'Dunhill Place Park'
p154
sba(i__main__
Park
p155
(dp156
g3
g4
sg5
S'-80.295722'
p157
sg7
S'Community Park'
p158
sg9
S'17 Elmira Road North'
p159
sg11
S'43.524973'
p160
sg13
S'Earl Brimblecombe Park'
p161
sba(i__main__
Park
p162
(dp163
g3
g4
sg5
S'-80.227598'
p164
sg7
S'Regional Park'
p165
sg9
S'800 Watson Parkway North'
p166
sg11
S'43.580309'
p167
sg13
S'Eastview Community Park'
p168
sba(i__main__
Park
p169
(dp170
g3
g4
sg5
S'-80.280771'
p171
sg7
S'Neighbourhood Park'
p172
sg9
S'395 Elmira Road South'
p173
sg11
S'43.517731'
p174
sg13
S'Elmira Park'
p175
sba(i__main__
Park
p176
(dp177
g3
g4
sg5
S'-80.220914'
p178
sg7
S'Community Park'
p179
sg9
S'259 Victoria Road South'
p180
sg11
S'43.549786'
p181
sg13
S'Eramosa River Park'
p182
sba(i__main__
Park
p183
(dp184
g3
g4
sg5
S'-80.259588'
p185
sg7
S'Regional Park'
p186
sg9
S'81 London Road West'
p187
sg11
S'43.54817'
p188
sg13
S'Exhibition Park'
p189
sba(i__main__
Park
p190
(dp191
g3
g4
sg5
S'-80.25968'
p192
sg7
S'Neighbourhood Park'
p193
sg9
S'31 Ferndale Avenue'
p194
sg11
S'43.579639'
p195
sg13
S'Ferndale Park'
p196
sba(i__main__
Park
p197
(dp198
g3
g4
sg5
S'-80.236323'
p199
sg7
S'Community Park'
p200
sg9
S'24 Franchetto Boulevard'
p201
sg11
S'43.55729'
p202
sg13
S'Franchetto Park'
p203
sba(i__main__
Park
p204
(dp205
g3
g4
sg5
S' -80.26705'
p206
sg7
S'Neighbourhood Park'
p207
sg9
S'63 Memorial Crescent'
p208
sg11
S'43.53528'
p209
sg13
S'Goldie Park'
p210
sba(i__main__
Park
p211
(dp212
g3
g4
sg5
S'-80.253131'
p213
sg7
S'Regional Park'
p214
sg9
S'70 Norwich Street'
p215
sg11
S'43.55001'
p216
sg13
S'Goldie Mill Park'
p217
sba(i__main__
Park
p218
(dp219
g3
g4
sg5
S'-80.266613'
p220
sg7
S'Neighbourhood Park'
p221
sg9
S'40 Golfview Road'
p222
sg11
S'43.575131'
p223
sg13
S'Golfview Park'
p224
sba(i__main__
Park
p225
(dp226
g3
g4
sg5
S'-80.193715'
p227
sg7
S'Neighbourhood Park'
p228
sg9
S'75 Gosling Gardens'
p229
sg11
S'43.501717'
p230
sg13
S'Gosling Gardens Park'
p231
sba(i__main__
Park
p232
(dp233
g3
g4
sg5
S'-80.219057'
p234
sg7
S'Neighbourhood Park'
p235
sg9
S'598 Grange Road'
p236
sg11
S'43.573131'
p237
sg13
S'Grange Road Park'
p238
sba(i__main__
Park
p239
(dp240
g3
g4
sg5
S'-80.242805'
p241
sg7
S'Community Park'
p242
sg9
S'245 Stevenson Street North'
p243
sg11
S'43.558922'
p244
sg13
S'Green Meadows Park'
p245
sba(i__main__
Park
p246
(dp247
g3
g4
sg5
S'-80.27926'
p248
sg7
S'Sports Fields  '
p249
sg9
S'816 Woolwich Street'
p250
sg11
S'43.567204'
p251
sg13
S'Guelph Curling Club'
p252
sba(i__main__
Park
p253
(dp254
g3
g4
sg5
S'-80.254548'
p255
sg7
S'Regional Park'
p256
sg9
S'Woodlawn Road East (at the end)'
p257
sg11
S'43.586002'
p258
sg13
S'Guelph Lake Sports Fields'
p259
sba(i__main__
Park
p260
(dp261
g3
g4
sg5
S'-80.22655'
p262
sg7
S'Community Park'
p263
sg9
S'505 Kortright Road West'
p264
sg11
S'43.511238'
p265
sg13
S'Hanlon Creek Park'
p266
sba(i__main__
Park
p267
(dp268
g3
g4
sg5
S'-80.213209'
p269
sg7
S'Neighbourhood Park'
p270
sg9
S'161 Rickson Avenue'
p271
sg11
S'43.514152'
p272
sg13
S'Hartsland Park'
p273
sba(i__main__
Park
p274
(dp275
g3
g4
sg5
S'-80.257511'
p276
sg7
S'Neighbourhood Park'
p277
sg9
S'175 Cardigan Street'
p278
sg11
S'43.553583'
p279
sg13
S'Herb Markle Park'
p280
sba(i__main__
Park
p281
(dp282
g3
g4
sg5
S'-80.242424'
p283
sg7
S'Regional Park'
p284
sg9
S'151 Wellington Street East'
p285
sg11
S'43.544784'
p286
sg13
S'Heritage Park'
p287
sba(i__main__
Park
p288
(dp289
g3
g4
sg5
S'-80.27158'
p290
sg7
S'Neighbourhood Park'
p291
sg9
S'17 Highview Place'
p292
sg11
S'43.552759'
p293
sg13
S'Highview Park'
p294
sba(i__main__
Park
p295
(dp296
g3
g4
sg5
S'-80.241933'
p297
sg7
S'Neighbourhood Park'
p298
sg9
S'27 Hillcrest Drive'
p299
sg11
S'43.549965'
p300
sg13
S'Hillcrest Park'
p301
sba(i__main__
Park
p302
(dp303
g3
g4
sg5
S'-80.191041'
p304
sg7
S'Neighbourhood Park'
p305
sg9
S'23 Holland Crescent'
p306
sg11
S'43.516066'
p307
sg13
S'Holland Cres. Park'
p308
sba(i__main__
Park
p309
(dp310
g3
g4
sg5
S'-80.187424'
p311
sg7
S'Community Park'
p312
sg9
S'35 Howden Crescent'
p313
sg11
S'43.518604'
p314
sg13
S'Howden Cres Park'
p315
sba(i__main__
Park
p316
(dp317
g3
g4
sg5
S'-80.26194'
p318
sg7
S'Community Park'
p319
sg9
S'81 Beechwood Avenue'
p320
sg11
S'43.533507'
p321
sg13
S'Howitt Park'
p322
sba(i__main__
Park
p323
(dp324
g3
g4
sg5
S'-80.24645'
p325
sg7
S'Community Park'
p326
sg9
S'111 Forest Street'
p327
sg11
S'43.529747'
p328
sg13
S'Hugh C. Guthrie  Park'
p329
sba(i__main__
Park
p330
(dp331
g3
g4
sg5
S'-80.252163'
p332
sg7
S'Regional Park'
p333
sg9
S'105 Norfolk Street'
p334
sg11
S'43.545429'
p335
sg13
S'I.O.D.E. Fountain'
p336
sba(i__main__
Park
p337
(dp338
g3
g4
sg5
S'-80.189086'
p339
sg7
S'Neighbourhood Park'
p340
sg9
S'11 Jenson Boulevard'
p341
sg11
S'43.513701'
p342
sg13
S'Jenson Boulevard Park'
p343
sba(i__main__
Park
p344
(dp345
g3
g4
sg5
S'-80.213714'
p346
sg7
S'Neighbourhood Park'
p347
sg9
S'245 Watson Parkway North'
p348
sg11
S'43.57052'
p349
sg13
S'Joe Veroni Park'
p350
sba(i__main__
Park
p351
(dp352
g3
g4
sg5
S'-80.245031'
p353
sg7
S'Regional Park'
p354
sg9
S'15-147 Woolwich Steet'
p355
sg11
S'43.547389'
p356
sg13
S'John Galt Park'
p357
sba(i__main__
Park
p358
(dp359
g3
g4
sg5
S'-80.23386'
p360
sg7
S'Neighbourhood Park'
p361
sg9
S'594 Kortright Road West'
p362
sg11
S'43.506719'
p363
sg13
S'John Gamble  Park'
p364
sba(i__main__
Park
p365
(dp366
g3
g4
sg5
S'-80.245256'
p367
sg7
S'Regional Park'
p368
sg9
S'10 McCrae Boulevard'
p369
sg11
S'43.535912'
p370
sg13
S'John Mccrae Garden Park'
p371
sba(i__main__
Park
p372
(dp373
g3
g4
sg5
S'-80.253062'
p374
sg7
S'Neighbourhood Park'
p375
sg9
S'230 Arthur Street North'
p376
sg11
S'43.551565'
p377
sg13
S'Joseph Wolfond Park (E) Arthur'
p378
sba(i__main__
Park
p379
(dp380
g3
g4
sg5
S'-80.255523'
p381
sg7
S'Neighbourhood Park'
p382
sg9
S'139 Cardigan Street'
p383
sg11
S'43.551282'
p384
sg13
S'Joseph Wolfond Park(W)Cardigan'
p385
sba(i__main__
Park
p386
(dp387
g3
g4
sg5
S'-80.275992'
p388
sg7
S'Neighbourhood Park'
p389
sg9
S'40 Kimberley Drive'
p390
sg11
S'43.551316'
p391
sg13
S'Kimberley Park'
p392
sba(i__main__
Park
p393
(dp394
g3
g4
sg5
S'-80.229899'
p395
sg7
S'Neighbourhood Park'
p396
sg9
S'165 Milson Crescent'
p397
sg11
S'43.499383'
p398
sg13
S'Kortright Hills Park'
p399
sba(i__main__
Park
p400
(dp401
g3
g4
sg5
S'-80.242512'
p402
sg7
S'Lawn Bowling Club'
p403
sg9
S'124 Gordon Street'
p404
sg11
S'43.539426'
p405
sg13
S'Lawn Bowling Greens'
p406
sba(i__main__
Park
p407
(dp408
g3
g4
sg5
S'-80.220548'
p409
sg7
S'Neighbourhood Park'
p410
sg9
S'71 Lee Street'
p411
sg11
S'43.565202'
p412
sg13
S'Lee Street Park'
p413
sba(i__main__
Park
p414
(dp415
g3
g4
sg5
S'-80.197868'
p416
sg7
S'Neighbourhood Park'
p417
sg9
S'55 Revell Drive'
p418
sg11
S'43.510009'
p419
sg13
S'Lewis Farm Park'
p420
sba(i__main__
Park
p421
(dp422
g3
g4
sg5
S'-80.229775'
p423
sg7
S'Community Park'
p424
sg9
S'299-301 York Road '
p425
sg11
S'43.547265'
p426
sg13
S'Lyon Park'
p427
sba(i__main__
Park
p428
(dp429
g3
g4
sg5
S'-80.213574'
p430
sg7
S'Neighbourhood Park'
p431
sg9
S'35 Hands Drive'
p432
sg11
S'43.526229'
p433
sg13
S'Macalister Park'
p434
sba(i__main__
Park
p435
(dp436
g3
g4
sg5
S'-80.278312'
p437
sg7
S'Regional Park'
p438
sg9
S'80 Westwood Road'
p439
sg11
S'43.533025'
p440
sg13
S'Margaret Greene Park'
p441
sba(i__main__
Park
p442
(dp443
g3
g4
sg5
S'-80.241351'
p444
sg7
S'Conservation Lands'
p445
sg9
S'176 Gordon Street'
p446
sg11
S'43.538384'
p447
sg13
S"Marianne'S Park"
p448
sba(i__main__
Park
p449
(dp450
g3
g4
sg5
S'-80.248708'
p451
sg7
S'Urban Square'
p452
sg9
S'1 Caden Street'
p453
sg11
S'43.54368'
p454
sg13
S'Market Square'
p455
sba(i__main__
Park
p456
(dp457
g3
g4
sg5
S'-80.289006'
p458
sg7
S'Neighbourhood Park'
p459
sg9
S'146 Marksam Road'
p460
sg11
S'43.537989'
p461
sg13
S'Marksam Park'
p462
sba(i__main__
Park
p463
(dp464
g3
g4
sg5
S'-80.220111'
p465
sg7
S'Neighbourhood Park'
p466
sg9
S'19 Mayfield Avenue'
p467
sg11
S'43.528795'
p468
sg13
S'Mayfield Park'
p469
sba(i__main__
Park
p470
(dp471
g3
g4
sg5
S'-80.267057'
p472
sg7
S'Neighbourhood Park'
p473
sg9
S'116 Memorial Crescent'
p474
sg11
S'43.535195'
p475
sg13
S'Memorial Crescent Park'
p476
sba(i__main__
Park
p477
(dp478
g3
g4
sg5
S'-80.23531'
p479
sg7
S'Neighbourhood Park'
p480
sg9
S'235 Elizabeth Street'
p481
sg11
S'43.552769'
p482
sg13
S'Mico Valeriote Park'
p483
sba(i__main__
Park
p484
(dp485
g3
g4
sg5
S'-80.296916'
p486
sg7
S'Conservation Lands'
p487
sg9
S'70 Elmira Road North'
p488
sg11
S'43.525814'
p489
sg13
S'Mitchell Park'
p490
sba(i__main__
Park
p491
(dp492
g3
g4
sg5
S'-80.239156'
p493
sg7
S'Neighbourhood Park'
p494
sg9
S'85 Downey Road'
p495
sg11
S'43.502339'
p496
sg13
S'Mollison Park'
p497
sba(i__main__
Park
p498
(dp499
g3
g4
sg5
S'-80.225092'
p500
sg7
S'Neighbourhood Park'
p501
sg9
S'15 Acker Street'
p502
sg11
S'43.580871'
p503
sg13
S'Morningcrest Park'
p504
sba(i__main__
Park
p505
(dp506
g3
g4
sg5
S'-80.277008'
p507
sg7
S'Community Park'
p508
sg9
S'22 Shelldale Crescent'
p509
sg11
S'43.544364'
p510
sg13
S'Norm Jary Park'
p511
sba(i__main__
Park
p512
(dp513
g3
g4
sg5
S'-80.249841'
p514
sg7
S'Neighbourhood Park'
p515
sg9
S'10 Northumberland Street'
p516
sg11
S'43.542855'
p517
sg13
S'Northumberland Park'
p518
sba(i__main__
Park
p519
(dp520
g3
g4
sg5
S'-80.220838'
p521
sg7
S'Neighbourhood Park'
p522
sg9
S'35 Oak Street'
p523
sg11
S'43.521983'
p524
sg13
S'Oak Street Park'
p525
sba(i__main__
Park
p526
(dp527
g3
g4
sg5
S'-80.220201'
p528
sg7
S'Community Park'
p529
sg9
S"31 O'Connor Lane"
p530
sg11
S'43.568194'
p531
sg13
S"O'Connor Lane Park"
p532
sba(i__main__
Park
p533
(dp534
g3
g4
sg5
S'-80.180602'
p535
sg7
S'Community Park'
p536
sg9
S'120 Goodwin Drive'
p537
sg11
S'43.509072'
p538
sg13
S'Orin Reid Park'
p539
sba(i__main__
Park
p540
(dp541
g3
g4
sg5
S'-80.262648'
p542
sg7
S'Regional Park'
p543
sg9
S'253 Paisley Street'
p544
sg11
S'43.540913'
p545
sg13
S'Blossom Junction Park'
p546
sba(i__main__
Park
p547
(dp548
g3
g4
sg5
S'-80.233803'
p549
sg7
S'Neighbourhood Park'
p550
sg9
S'34 Palermo Crescent'
p551
sg11
S'43.561933'
p552
sg13
S'Palermo Park'
p553
sba(i__main__
Park
p554
(dp555
g3
g4
sg5
S'-80.233819'
p556
sg7
S'Community Park'
p557
sg9
S'122 Hadati Road/ 35 Mountford Drive'
p558
sg11
S'43.563033'
p559
sg13
S'Peter Misersky Park'
p560
sba(i__main__
Park
p561
(dp562
g3
g4
sg5
S'-80.176131'
p563
sg7
S'Neighbourhood Park'
p564
sg9
S'101 Baxter Drive'
p565
sg11
S'43.514497'
p566
sg13
S'Pinch Park'
p567
sba(i__main__
Park
p568
(dp569
g3
g4
sg5
S'-80.194176'
p570
sg7
S'Community Park'
p571
sg9
S'87 Pine Ridge Drive'
p572
sg11
S'43.510452'
p573
sg13
S'Pine Ridge Park'
p574
sba(i__main__
Park
p575
(dp576
g3
g4
sg5
S'-80.225022'
p577
sg7
S'Conservation Lands'
p578
sg9
S'226 Kortright Road West'
p579
sg11
S'43.511094'
p580
sg13
S'Preservation Park'
p581
sba(i__main__
Park
p582
(dp583
g3
g4
sg5
S'-80.245324'
p584
sg7
S'Regional Park'
p585
sg9
S'140 MacDonell Street'
p586
sg11
S'43.5462'
p587
sg13
S'Priory Park (Blacksmith Water Fountain)'
p588
sba(i__main__
Park
p589
(dp590
g3
g4
sg5
S'-80.223761'
p591
sg7
S'Neighbourhood Park'
p592
sg9
S'25 Rickson Avenue'
p593
sg11
S'43.521246'
p594
sg13
S'Rickson Park'
p595
sba(i__main__
Park
p596
(dp597
g3
g4
sg5
S'-80.27151'
p598
sg7
S'Regional Park'
p599
sg9
S'709 Woolwich Street'
p600
sg11
S'43.560857'
p601
sg13
S'Riverside Park'
p602
sba(i__main__
Park
p603
(dp604
g3
g4
sg5
S'-80.201732'
p605
sg7
S'Neighbourhood Park'
p606
sg9
S'74 Robin Road'
p607
sg11
S'43.522201'
p608
sg13
S'Robin Road Park'
p609
sba(i__main__
Park
p610
(dp611
g3
g4
sg5
S'-80.242649'
p612
sg7
S'Regional Park'
p613
sg9
S'119 Gordon Street'
p614
sg11
S'43.539263'
p615
sg13
S'Royal City Park'
p616
sba(i__main__
Park
p617
(dp618
g3
g4
sg5
S'-80.219003'
p619
sg7
S'Community Park'
p620
sg9
S'785 York Road'
p621
sg11
S'43.55543'
p622
sg13
S'Royal City Jaycees Park'
p623
sba(i__main__
Park
p624
(dp625
g3
g4
sg5
S'-80.216871'
p626
sg7
S'Community Park'
p627
sg9
S'125 Severn Drive'
p628
sg11
S'43.574854'
p629
sg13
S'Severn Drive Park'
p630
sba(i__main__
Park
p631
(dp632
g3
g4
sg5
S'-80.253378'
p633
sg7
S'Community Park'
p634
sg9
S'142 Edinburgh Road South'
p635
sg11
S'43.533896'
p636
sg13
S'Silvercreek Park (Including Water Street Park)'
p637
sba(i__main__
Park
p638
(dp639
g3
g4
sg5
S'-80.247803'
p640
sg7
S'Community Park'
p641
sg9
S'580 Eramosa Road'
p642
sg11
S'43.568285'
p643
sg13
S'Skov Park'
p644
sba(i__main__
Park
p645
(dp646
g3
g4
sg5
S'-80.276184'
p647
sg7
S'Community Park'
p648
sg9
S'80 Sleeman Avenue'
p649
sg11
S'43.538986'
p650
sg13
S'Sleeman Park'
p651
sba(i__main__
Park
p652
(dp653
g3
g4
sg5
S'-80.194316'
p654
sg7
S'Regional Park'
p655
sg9
S'25 Poppy Drive'
p656
sg11
S'43.494347'
p657
sg13
S'South End Community Park'
p658
sba(i__main__
Park
p659
(dp660
g3
g4
sg5
S'-80.272315'
p661
sg7
S'Community Park'
p662
sg9
S'38 Springdale Boulevard'
p663
sg11
S'43.519085'
p664
sg13
S'Springdale Park'
p665
sba(i__main__
Park
p666
(dp667
g3
g4
sg5
S'-80.241829'
p668
sg7
S'Community Park'
p669
sg9
S'40 Metcalfe Street'
p670
sg11
S'43.551591'
p671
sg13
S"St. George'S Park"
p672
sba(i__main__
Park
p673
(dp674
g3
g4
sg5
S'-80.229041'
p675
sg7
S'Neighbourhood Park'
p676
sg9
S'70 Starview Crescent'
p677
sg11
S'43.566564'
p678
sg13
S'Starview Crescent Park'
p679
sba(i__main__
Park
p680
(dp681
g3
g4
sg5
S'-80.235064'
p682
sg7
S'Neighbourhood Park'
p683
sg9
S'215 Ironwood Road'
p684
sg11
S'43.511114'
p685
sg13
S'Steffler Park'
p686
sba(i__main__
Park
p687
(dp688
g3
g4
sg5
S'-80.281611'
p689
sg7
S'Neighbourhood Park'
p690
sg9
S'275 Stephanie Drive'
p691
sg11
S'43.52243'
p692
sg13
S'Stephanie Drive Park'
p693
sba(i__main__
Park
p694
(dp695
g3
g4
sg5
S'-80.264576'
p696
sg7
S'Neighbourhood Park'
p697
sg9
S'265 Suffolk Street West'
p698
sg11
S'43.542218'
p699
sg13
S'Suffolk Street Park'
p700
sba(i__main__
Park
p701
(dp702
g3
g4
sg5
S'-80.294815'
p703
sg7
S'Conservation Lands'
p704
sg9
S'381 Westwood Road'
p705
sg11
S'43.534771'
p706
sg13
S'Sugartree Woodlot'
p707
sba(i__main__
Park
p708
(dp709
g3
g4
sg5
S'-80.229523'
p710
sg7
S'Neighbourhood Park'
p711
sg9
S'50 Summit Ridge Drive'
p712
sg11
S'43.571663'
p713
sg13
S'Summit Ridge Park'
p714
sba(i__main__
Park
p715
(dp716
g3
g4
sg5
S'-80.259401'
p717
sg7
S'Neighbourhood Park'
p718
sg9
S'45 Edinburgh Road North'
p719
sg11
S'43.538469'
p720
sg13
S'Sunny Acres Park'
p721
sba(i__main__
Park
p722
(dp723
g3
g4
sg5
S'-80.251053'
p724
sg7
S'Urban Square'
p725
sg9
S'157 Woolwich Street'
p726
sg11
S'43.548096'
p727
sg13
S'Trafalgar Square'
p728
sba(i__main__
Park
p729
(dp730
g3
g4
sg5
S'-80.231687'
p731
sg7
S'Community Park'
p732
sg9
S'93 Ironwood Road'
p733
sg11
S'43.515248'
p734
sg13
S'University Village Park'
p735
sba(i__main__
Park
p736
(dp737
g3
g4
sg5
S'-80.240828'
p738
sg7
S'Community Park'
p739
sg9
S'565 Scottsdale Drive'
p740
sg11
S'43.516902'
p741
sg13
S'W.E. Hamilton Park'
p742
sba(i__main__
Park
p743
(dp744
g3
g4
sg5
S'-80.248834'
p745
sg7
S'Community Park'
p746
sg9
S'1 Gordon Street'
p747
sg11
S'43.542117'
p748
sg13
S'Waterloo Avenue Park'
p749
sba(i__main__
Park
p750
(dp751
g3
g4
sg5
S'-80.258034'
p752
sg7
S'Community Park'
p753
sg9
S'76 Balmoral Drive'
p754
sg11
S'43.57282'
p755
sg13
S'Waverley Park'
p756
sba(i__main__
Park
p757
(dp758
g3
g4
sg5
S'-80.188402'
p759
sg7
S'Community Park'
p760
sg9
S'146 Clairfields Drive East'
p761
sg11
S'43.507569'
p762
sg13
S'Westminster Woods Park'
p763
sba(i__main__
Park
p764
(dp765
g3
g4
sg5
S'-80.283113'
p766
sg7
S'Neighbourhood Park'
p767
sg9
S'491 Whitelaw Road'
p768
sg11
S'43.5157'
p769
sg13
S'Whitelaw Gardens Park'
p770
sba(i__main__
Park
p771
(dp772
g3
g4
sg5
S'-80.267329'
p773
sg7
S'Neighbourhood Park'
p774
sg9
S'80 Simmonds Drive'
p775
sg11
S'43.579505'
p776
sg13
S'Wilson Farm Park'
p777
sba(i__main__
Park
p778
(dp779
g3
g4
sg5
S'-80.261135'
p780
sg7
S'Neighbourhood Park'
p781
sg9
S'74 Waverley Drive'
p782
sg11
S'43.570702'
p783
sg13
S'Windsor Park'
p784
sba(i__main__
Park
p785
(dp786
g3
g4
sg5
S'-80.244988'
p787
sg7
S'Community Park'
p788
sg9
S'30 Woodland Glen Drive'
p789
sg11
S'43.508079'
p790
sg13
S'Woodland Glen Park'
p791
sba(i__main__
Park
p792
(dp793
g3
g4
sg5
S'-80.217951'
p794
sg7
S'Neighbourhood Park'
p795
sg9
S'20 Yewholme Drive'
p796
sg11
S'43.521603'
p797
sg13
S'Yewholme Park'
p798
sba(i__main__
Park
p799
(dp800
g3
g4
sg5
S'-80.240505'
p801
sg7
S'Community Park'
p802
sg9
S'85 York Road'
p803
sg11
S'43.541183'
p804
sg13
S'York Road Park'
p805
sba(i__main__
Park
p806
(dp807
g3
g4
sg5
S'-80.231432'
p808
sg7
S'Leash Free Zone'
p809
sg9
S'594 Hanlon Road'
p810
sg11
S'43.504807'
p811
sg13
S'Hanlon Road - Hydro Corridor'
p812
sba(i__main__
Park
p813
(dp814
g3
g4
sg5
S'-80.267138'
p815
sg7
S'Sports Fields '
p816
sg9
S'54 Westmount Road'
p817
sg11
S'43.548082'
p818
sg13
S'Our Lady Of Lourdes Catholic High School'
p819
sba(i__main__
Park
p820
(dp821
g3
g4
sg5
S'-80.223048'
p822
sg7
S'Sports Fields'
p823
sg9
S'9 McElderry Road'
p824
sg11
S'43.51938'
p825
sg13
S'St. Michael Catholic School'
p826
sba(i__main__
Park
p827
(dp828
g3
g4
sg5
S'-80.234163'
p829
sg7
S'Sports Fields'
p830
sg9
S'57 Victoria Road North'
p831
sg11
S'43.560009'
p832
sg13
S'St. James Catholic High School'
p833
sba(i__main__
Park
p834
(dp835
g3
g4
sg5
S'-80.234206'
p836
sg7
S'Sports Fields'
p837
sg9
V\u200b63 Victoria Road North
p838
sg11
S'43.559605'
p839
sg13
S'St. John Catholic School'
p840
sba(i__main__
Park
p841
(dp842
g3
g4
sg5
S'-80.281724'
p843
sg7
S'Sports Fields'
p844
sg9
S'287 Imperial Road South'
p845
sg11
S'43.525721'
p846
sg13
S'St. Francis Of Assisi Catholic School'
p847
sba(i__main__
Park
p848
(dp849
g3
g4
sg5
S'-80.194391'
p850
sg7
S'Sports Fields'
p851
sg9
S'200 Clair Road West'
p852
sg11
S'43.494293'
p853
sg13
S'Bishop Macdonald Catholic High School'
p854
sba(i__main__
Park
p855
(dp856
g3
g4
sg5
S'-80.231502'
p857
sg7
S'Sports Fields'
p858
sg9
S'213-217 South Ring Road West'
p859
sg11
S'43.526001'
p860
sg13
S'Omafra'
p861
sba(i__main__
Park
p862
(dp863
g3
g4
sg5
S'-80.20792'
p864
sg7
S'Sports Fields'
p865
sg9
S'57 Watson Pkwy S'
p866
sg11
S'43.56385'
p867
sg13
S'Royal Canadian Legion'
p868
sba.