(lp0
(i__main__
Park
p1
(dp2
S'lat'
p3
S'43.558561'
p4
sS'lon'
p5
S'-80.274627'
p6
sS'name'
p7
S'BAILEY PARK'
p8
sba(i__main__
Park
p9
(dp10
g3
S'43.520464'
p11
sg5
S'-80.205792'
p12
sg7
S'BATHGATE DRIVE PARK '
p13
sba(i__main__
Park
p14
(dp15
g3
S'43.582723'
p16
sg5
S'-80.257454'
p17
sg7
S'BEVERLEY ROBSON PARK'
p18
sba(i__main__
Park
p19
(dp20
g3
S'43.58071'
p21
sg5
S'-80.255464'
p22
sg7
S'BRANT AVENUE PARK '
p23
sba(i__main__
Park
p24
(dp25
g3
S'43.54651'
p26
sg5
S'-80.243543'
p27
sg7
S'BRISTOL STREET PARK '
p28
sba(i__main__
Park
p29
(dp30
g3
S'43.562958'
p31
sg5
S'-80.250666'
p32
sg7
S'BULLFROG POND PARK'
p33
sba(i__main__
Park
p34
(dp35
g3
S'43.557144'
p36
sg5
S'-80.280827'
p37
sg7
S'BURNS DRIVE PARK'
p38
sba(i__main__
Park
p39
(dp40
g3
S'43.569382'
p41
sg5
S'-80.243296'
p42
sg7
S'CARTER PARK'
p43
sba(i__main__
Park
p44
(dp45
g3
S'43.52851'
p46
sg5
S'-80.272823'
p47
sg7
S'CASTLEBURY DRIVE PARK'
p48
sba(i__main__
Park
p49
(dp50
g3
S'43.560792'
p51
sg5
S'-80.220344'
p52
sg7
S'CEDARVALE PARK'
p53
sba(i__main__
Park
p54
(dp55
g3
S'43.519502'
p56
sg5
S'-80.249743'
p57
sg7
S'CENTENNIAL PARK '
p58
sba(i__main__
Park
p59
(dp60
g3
S'43.504213'
p61
sg5
S'-80.189013'
p62
sg7
S'CLAIR PARK '
p63
sba(i__main__
Park
p64
(dp65
g3
S'43.555931'
p66
sg5
S'-80.262817'
p67
sg7
S'CNR SPURLINE PARK '
p68
sba(i__main__
Park
p69
(dp70
g3
S'43.517435'
p71
sg5
S'-80.18172'
p72
sg7
S'COLONIAL DRIVE PARK '
p73
sba(i__main__
Park
p74
(dp75
g3
S'43.511448'
p76
sg5
S'-80.256012'
p77
sg7
S'CRANE PARK '
p78
sba(i__main__
Park
p79
(dp80
g3
S'43.573539'
p81
sg5
S'-80.251943'
p82
sg7
S'DAKOTA PARK '
p83
sba(i__main__
Park
p84
(dp85
g3
S'43.526276'
p86
sg5
S'-80.279668'
p87
sg7
S'DEERPATH DRIVE PARK '
p88
sba(i__main__
Park
p89
(dp90
g3
S'43.512899'
p91
sg5
S'-80.253459'
p92
sg7
S'DOVERCLIFFE PARK '
p93
sba(i__main__
Park
p94
(dp95
g3
S'43.541947'
p96
sg5
S'-80.271083'
p97
sg7
S'DREW PARK '
p98
sba(i__main__
Park
p99
(dp100
g3
S'43.567123'
p101
sg5
S'-80.24616'
p102
sg7
S'DRUMMOND PARK '
p103
sba(i__main__
Park
p104
(dp105
g3
S'43.528631'
p106
sg5
S'-80.291961'
p107
sg7
S'DUNHILL PLACE PARK'
p108
sba(i__main__
Park
p109
(dp110
g3
S'43.524973'
p111
sg5
S'-80.295722'
p112
sg7
S'EARL BRIMBLECOMBE PARK '
p113
sba(i__main__
Park
p114
(dp115
g3
S'43.580309'
p116
sg5
S'-80.227598'
p117
sg7
S'EASTVIEW COMMUNITY PARK'
p118
sba(i__main__
Park
p119
(dp120
g3
S'43.517731'
p121
sg5
S'-80.280771'
p122
sg7
S'ELMIRA PARK '
p123
sba(i__main__
Park
p124
(dp125
g3
S'43.549786'
p126
sg5
S'-80.220914'
p127
sg7
S'ERAMOSA RIVER PARK '
p128
sba(i__main__
Park
p129
(dp130
g3
S'43.54817'
p131
sg5
S'-80.259588'
p132
sg7
S'EXHIBITION PARK'
p133
sba(i__main__
Park
p134
(dp135
g3
S'43.579639'
p136
sg5
S'-80.25968'
p137
sg7
S'FERNDALE PARK'
p138
sba(i__main__
Park
p139
(dp140
g3
S'43.55729'
p141
sg5
S'-80.236323'
p142
sg7
S'FRANCHETTO PARK '
p143
sba(i__main__
Park
p144
(dp145
g3
S'43.53528'
p146
sg5
S' -80.26705'
p147
sg7
S'GOLDIE PARK '
p148
sba(i__main__
Park
p149
(dp150
g3
S'43.55001'
p151
sg5
S'-80.253131'
p152
sg7
S'GOLDIE MILL PARK '
p153
sba(i__main__
Park
p154
(dp155
g3
S'43.575131'
p156
sg5
S'-80.266613'
p157
sg7
S'GOLFVIEW PARK '
p158
sba(i__main__
Park
p159
(dp160
g3
S'43.501717'
p161
sg5
S'-80.193715'
p162
sg7
S'GOSLING GARDENS PARK'
p163
sba(i__main__
Park
p164
(dp165
g3
S'43.573131'
p166
sg5
S'-80.219057'
p167
sg7
S'GRANGE ROAD PARK'
p168
sba(i__main__
Park
p169
(dp170
g3
S'43.558922'
p171
sg5
S'-80.242805'
p172
sg7
S'GREEN MEADOWS PARK '
p173
sba(i__main__
Park
p174
(dp175
g3
S'43.567204'
p176
sg5
S'-80.27926'
p177
sg7
S'GUELPH CURLING CLUB'
p178
sba(i__main__
Park
p179
(dp180
g3
S'43.586002'
p181
sg5
S'-80.254548'
p182
sg7
S'GUELPH LAKE SPORTS FIELDS'
p183
sba(i__main__
Park
p184
(dp185
g3
S'43.511238'
p186
sg5
S'-80.22655'
p187
sg7
S'HANLON CREEK PARK'
p188
sba(i__main__
Park
p189
(dp190
g3
S'43.514152'
p191
sg5
S'-80.213209'
p192
sg7
S'HARTSLAND PARK'
p193
sba(i__main__
Park
p194
(dp195
g3
S'43.553583'
p196
sg5
S'-80.257511'
p197
sg7
S'HERB MARKLE PARK '
p198
sba(i__main__
Park
p199
(dp200
g3
S'43.544784'
p201
sg5
S'-80.242424'
p202
sg7
S'HERITAGE PARK '
p203
sba(i__main__
Park
p204
(dp205
g3
S'43.552759'
p206
sg5
S'-80.27158'
p207
sg7
S'HIGHVIEW PARK '
p208
sba(i__main__
Park
p209
(dp210
g3
S'43.549965'
p211
sg5
S'-80.241933'
p212
sg7
S'HILLCREST PARK'
p213
sba(i__main__
Park
p214
(dp215
g3
S'43.516066'
p216
sg5
S'-80.191041'
p217
sg7
S'HOLLAND CRES. PARK'
p218
sba(i__main__
Park
p219
(dp220
g3
S'43.518604'
p221
sg5
S'-80.187424'
p222
sg7
S'HOWDEN CRES PARK '
p223
sba(i__main__
Park
p224
(dp225
g3
S'43.533507'
p226
sg5
S'-80.26194'
p227
sg7
S'HOWITT PARK '
p228
sba(i__main__
Park
p229
(dp230
g3
S'43.529747'
p231
sg5
S'-80.24645'
p232
sg7
S'HUGH C. GUTHRIE  PARK'
p233
sba(i__main__
Park
p234
(dp235
g3
S'43.545429'
p236
sg5
S'-80.252163'
p237
sg7
S'I.O.D.E. FOUNTAIN '
p238
sba(i__main__
Park
p239
(dp240
g3
S'43.513701'
p241
sg5
S'-80.189086'
p242
sg7
S'JENSON BOULEVARD PARK '
p243
sba(i__main__
Park
p244
(dp245
g3
S'43.57052'
p246
sg5
S'-80.213714'
p247
sg7
S'JOE VERONI PARK'
p248
sba(i__main__
Park
p249
(dp250
g3
S'43.547389'
p251
sg5
S'-80.245031'
p252
sg7
S'JOHN GALT PARK'
p253
sba(i__main__
Park
p254
(dp255
g3
S'43.506719'
p256
sg5
S'-80.23386'
p257
sg7
S'JOHN GAMBLE  PARK '
p258
sba(i__main__
Park
p259
(dp260
g3
S'43.535912'
p261
sg5
S'-80.245256'
p262
sg7
S'JOHN McCRAE GARDEN PARK '
p263
sba(i__main__
Park
p264
(dp265
g3
S'43.551565'
p266
sg5
S'-80.253062'
p267
sg7
S'JOSEPH WOLFOND PARK (E) Arthur '
p268
sba(i__main__
Park
p269
(dp270
g3
S'43.551282'
p271
sg5
S'-80.255523'
p272
sg7
S'JOSEPH WOLFOND PARK(W)Cardigan'
p273
sba(i__main__
Park
p274
(dp275
g3
S'43.551316'
p276
sg5
S'-80.275992'
p277
sg7
S'KIMBERLEY PARK '
p278
sba(i__main__
Park
p279
(dp280
g3
S'43.499383'
p281
sg5
S'-80.229899'
p282
sg7
S'KORTRIGHT HILLS PARK '
p283
sba(i__main__
Park
p284
(dp285
g3
S'43.539426'
p286
sg5
S'-80.242512'
p287
sg7
S'LAWN BOWLING GREENS'
p288
sba(i__main__
Park
p289
(dp290
g3
S'43.565202'
p291
sg5
S'-80.220548'
p292
sg7
S'LEE STREET PARK '
p293
sba(i__main__
Park
p294
(dp295
g3
S'43.510009'
p296
sg5
S'-80.197868'
p297
sg7
S'LEWIS FARM PARK'
p298
sba(i__main__
Park
p299
(dp300
g3
S'43.547265'
p301
sg5
S'-80.229775'
p302
sg7
S'LYON PARK '
p303
sba(i__main__
Park
p304
(dp305
g3
S'43.526229'
p306
sg5
S'-80.213574'
p307
sg7
S'MACALISTER PARK '
p308
sba(i__main__
Park
p309
(dp310
g3
S'43.533025'
p311
sg5
S'-80.278312'
p312
sg7
S'MARGARET GREENE PARK '
p313
sba(i__main__
Park
p314
(dp315
g3
S'43.538384'
p316
sg5
S'-80.241351'
p317
sg7
S"MARIANNE'S PARK "
p318
sba(i__main__
Park
p319
(dp320
g3
S'43.54368'
p321
sg5
S'-80.248708'
p322
sg7
S'MARKET SQUARE'
p323
sba(i__main__
Park
p324
(dp325
g3
S'43.537989'
p326
sg5
S'-80.289006'
p327
sg7
S'MARKSAM PARK '
p328
sba(i__main__
Park
p329
(dp330
g3
S'43.528795'
p331
sg5
S'-80.220111'
p332
sg7
S'MAYFIELD PARK '
p333
sba(i__main__
Park
p334
(dp335
g3
S'43.535195'
p336
sg5
S'-80.267057'
p337
sg7
S'MEMORIAL CRESCENT PARK '
p338
sba(i__main__
Park
p339
(dp340
g3
S'43.552769'
p341
sg5
S'-80.23531'
p342
sg7
S'MICO VALERIOTE PARK'
p343
sba(i__main__
Park
p344
(dp345
g3
S'43.525814'
p346
sg5
S'-80.296916'
p347
sg7
S'MITCHELL PARK '
p348
sba(i__main__
Park
p349
(dp350
g3
S'43.502339'
p351
sg5
S'-80.239156'
p352
sg7
S'MOLLISON PARK '
p353
sba(i__main__
Park
p354
(dp355
g3
S'43.580871'
p356
sg5
S'-80.225092'
p357
sg7
S'MORNINGCREST PARK'
p358
sba(i__main__
Park
p359
(dp360
g3
S'43.544364'
p361
sg5
S'-80.277008'
p362
sg7
S'NORM JARY PARK'
p363
sba(i__main__
Park
p364
(dp365
g3
S'43.542855'
p366
sg5
S'-80.249841'
p367
sg7
S'NORTHUMBERLAND PARK '
p368
sba(i__main__
Park
p369
(dp370
g3
S'43.521983'
p371
sg5
S'-80.220838'
p372
sg7
S'OAK STREET PARK '
p373
sba(i__main__
Park
p374
(dp375
g3
S'43.568194'
p376
sg5
S'-80.220201'
p377
sg7
S"O'CONNOR LANE PARK "
p378
sba(i__main__
Park
p379
(dp380
g3
S'43.509072'
p381
sg5
S'-80.180602'
p382
sg7
S'ORIN REID PARK'
p383
sba(i__main__
Park
p384
(dp385
g3
S'43.540913'
p386
sg5
S'-80.262648'
p387
sg7
S'BLOSSOM JUNCTION PARK'
p388
sba(i__main__
Park
p389
(dp390
g3
S'43.561933'
p391
sg5
S'-80.233803'
p392
sg7
S'PALERMO PARK '
p393
sba(i__main__
Park
p394
(dp395
g3
S'43.563033'
p396
sg5
S'-80.233819'
p397
sg7
S'PETER MISERSKY PARK '
p398
sba(i__main__
Park
p399
(dp400
g3
S'43.514497'
p401
sg5
S'-80.176131'
p402
sg7
S'PINCH PARK'
p403
sba(i__main__
Park
p404
(dp405
g3
S'43.510452'
p406
sg5
S'-80.194176'
p407
sg7
S'PINE RIDGE PARK '
p408
sba(i__main__
Park
p409
(dp410
g3
S'43.511094'
p411
sg5
S'-80.225022'
p412
sg7
S'PRESERVATION PARK'
p413
sba(i__main__
Park
p414
(dp415
g3
S'43.5462'
p416
sg5
S'-80.245324'
p417
sg7
S'PRIORY PARK (BLACKSMITH WATER FOUNTAIN)'
p418
sba(i__main__
Park
p419
(dp420
g3
S'43.521246'
p421
sg5
S'-80.223761'
p422
sg7
S'RICKSON PARK '
p423
sba(i__main__
Park
p424
(dp425
g3
S'43.560857'
p426
sg5
S'-80.27151'
p427
sg7
S'RIVERSIDE PARK '
p428
sba(i__main__
Park
p429
(dp430
g3
S'43.522201'
p431
sg5
S'-80.201732'
p432
sg7
S'ROBIN ROAD PARK '
p433
sba(i__main__
Park
p434
(dp435
g3
S'43.539263'
p436
sg5
S'-80.242649'
p437
sg7
S'ROYAL CITY PARK '
p438
sba(i__main__
Park
p439
(dp440
g3
S'43.55543'
p441
sg5
S'-80.219003'
p442
sg7
S'ROYAL CITY JAYCEES PARK'
p443
sba(i__main__
Park
p444
(dp445
g3
S'43.574854'
p446
sg5
S'-80.216871'
p447
sg7
S'SEVERN DRIVE PARK '
p448
sba(i__main__
Park
p449
(dp450
g3
S'43.533896'
p451
sg5
S'-80.253378'
p452
sg7
S'SILVERCREEK PARK (including water street park)'
p453
sba(i__main__
Park
p454
(dp455
g3
S'43.568285'
p456
sg5
S'-80.247803'
p457
sg7
S'SKOV PARK '
p458
sba(i__main__
Park
p459
(dp460
g3
S'43.538986'
p461
sg5
S'-80.276184'
p462
sg7
S'SLEEMAN PARK '
p463
sba(i__main__
Park
p464
(dp465
g3
S'43.494347'
p466
sg5
S'-80.194316'
p467
sg7
S'SOUTH END COMMUNITY PARK '
p468
sba(i__main__
Park
p469
(dp470
g3
S'43.519085'
p471
sg5
S'-80.272315'
p472
sg7
S'SPRINGDALE PARK'
p473
sba(i__main__
Park
p474
(dp475
g3
S'43.551591'
p476
sg5
S'-80.241829'
p477
sg7
S"ST. GEORGE'S PARK "
p478
sba(i__main__
Park
p479
(dp480
g3
S'43.566564'
p481
sg5
S'-80.229041'
p482
sg7
S'STARVIEW CRESCENT PARK '
p483
sba(i__main__
Park
p484
(dp485
g3
S'43.511114'
p486
sg5
S'-80.235064'
p487
sg7
S'STEFFLER PARK '
p488
sba(i__main__
Park
p489
(dp490
g3
S'43.52243'
p491
sg5
S'-80.281611'
p492
sg7
S'STEPHANIE DRIVE PARK '
p493
sba(i__main__
Park
p494
(dp495
g3
S'43.542218'
p496
sg5
S'-80.264576'
p497
sg7
S'SUFFOLK STREET PARK '
p498
sba(i__main__
Park
p499
(dp500
g3
S'43.534771'
p501
sg5
S'-80.294815'
p502
sg7
S'SUGARTREE WOODLOT'
p503
sba(i__main__
Park
p504
(dp505
g3
S'43.571663'
p506
sg5
S'-80.229523'
p507
sg7
S'SUMMIT RIDGE PARK'
p508
sba(i__main__
Park
p509
(dp510
g3
S'43.538469'
p511
sg5
S'-80.259401'
p512
sg7
S'SUNNY ACRES PARK '
p513
sba(i__main__
Park
p514
(dp515
g3
S'43.548096'
p516
sg5
S'-80.251053'
p517
sg7
S'TRAFALGAR SQUARE'
p518
sba(i__main__
Park
p519
(dp520
g3
S'43.515248'
p521
sg5
S'-80.231687'
p522
sg7
S'UNIVERSITY VILLAGE PARK '
p523
sba(i__main__
Park
p524
(dp525
g3
S'43.516902'
p526
sg5
S'-80.240828'
p527
sg7
S'W.E. HAMILTON PARK '
p528
sba(i__main__
Park
p529
(dp530
g3
S'43.542117'
p531
sg5
S'-80.248834'
p532
sg7
S'WATERLOO AVENUE PARK '
p533
sba(i__main__
Park
p534
(dp535
g3
S'43.57282'
p536
sg5
S'-80.258034'
p537
sg7
S'WAVERLEY PARK '
p538
sba(i__main__
Park
p539
(dp540
g3
S'43.507569'
p541
sg5
S'-80.188402'
p542
sg7
S'WESTMINSTER WOODS PARK '
p543
sba(i__main__
Park
p544
(dp545
g3
S'43.5157'
p546
sg5
S'-80.283113'
p547
sg7
S'WHITELAW GARDENS PARK'
p548
sba(i__main__
Park
p549
(dp550
g3
S'43.579505'
p551
sg5
S'-80.267329'
p552
sg7
S'WILSON FARM PARK'
p553
sba(i__main__
Park
p554
(dp555
g3
S'43.570702'
p556
sg5
S'-80.261135'
p557
sg7
S'WINDSOR PARK '
p558
sba(i__main__
Park
p559
(dp560
g3
S'43.508079'
p561
sg5
S'-80.244988'
p562
sg7
S'WOODLAND GLEN PARK '
p563
sba(i__main__
Park
p564
(dp565
g3
S'43.521603'
p566
sg5
S'-80.217951'
p567
sg7
S'YEWHOLME PARK '
p568
sba(i__main__
Park
p569
(dp570
g3
S'43.541183'
p571
sg5
S'-80.240505'
p572
sg7
S'YORK ROAD PARK '
p573
sba(i__main__
Park
p574
(dp575
g3
S'43.504807'
p576
sg5
S'-80.231432'
p577
sg7
S'HANLON ROAD - HYDRO CORRIDOR'
p578
sba(i__main__
Park
p579
(dp580
g3
S'43.548082'
p581
sg5
S'-80.267138'
p582
sg7
S'Our Lady of Lourdes Catholic High School'
p583
sba(i__main__
Park
p584
(dp585
g3
S'43.51938'
p586
sg5
S'-80.223048'
p587
sg7
S'St. Michael Catholic School'
p588
sba(i__main__
Park
p589
(dp590
g3
S'43.560009'
p591
sg5
S'-80.234163'
p592
sg7
S'St. James Catholic High School'
p593
sba(i__main__
Park
p594
(dp595
g3
S'43.559605'
p596
sg5
S'-80.234206'
p597
sg7
S'St. John Catholic School'
p598
sba(i__main__
Park
p599
(dp600
g3
S'43.525721'
p601
sg5
S'-80.281724'
p602
sg7
S'St. Francis of Assisi Catholic School'
p603
sba(i__main__
Park
p604
(dp605
g3
S'43.494293'
p606
sg5
S'-80.194391'
p607
sg7
S'Bishop MacDonald Catholic High School'
p608
sba(i__main__
Park
p609
(dp610
g3
S'43.526001'
p611
sg5
S'-80.231502'
p612
sg7
S'OMAFRA'
p613
sba(i__main__
Park
p614
(dp615
g3
S'43.56385'
p616
sg5
S'-80.20792'
p617
sg7
S'Royal Canadian Legion '
p618
sba.