(lp0
(i__main__
Stop
p1
(dp2
S'lat'
p3
S'43.545180'
p4
sS'routes'
p5
(lp6
S'2A'
p7
aS'Route2B'
p8
aS'Route3B'
p9
aS'Route10'
p10
aS'Route11'
p11
aS'Route20'
p12
aS'Route12'
p13
aS'Route13'
p14
aS'Route3A'
p15
aS'Route5'
p16
aS'Route8'
p17
aS'Route9'
p18
aS'Route56'
p19
aS'Route16'
p20
asS'lon'
p21
S'-80.246050'
p22
sS'name'
p23
S'GUELPH CENTRAL STATION'
p24
sba(i__main__
Stop
p25
(dp26
g3
S'43.540815'
p27
sg5
(lp28
S'2A'
p29
aS'Route3B'
p30
aS'Route5'
p31
asg21
S'-80.245214'
p32
sg23
S'KFC ON WELLINGTON ST'
p33
sba(i__main__
Stop
p34
(dp35
g3
S'43.53833'
p36
sg5
(lp37
S'2A'
p38
aS'Route3B'
p39
aS'Route5'
p40
asg21
S'-80.245214'
p41
sg23
S'GORDON ST AT WATER ST'
p42
sba(i__main__
Stop
p43
(dp44
g3
S'43.537154'
p45
sg5
(lp46
S'2A'
p47
aS'Route3B'
p48
aS'Route5'
p49
aS'Route16'
p50
asg21
S'-80.239813'
p51
sg23
S'GORDON ST AT FORBES AVE'
p52
sba(i__main__
Stop
p53
(dp54
g3
S'43.534009'
p55
sg5
(lp56
S'2A'
p57
aS'Route3B'
p58
aS'Route5'
p59
aS'Route16'
p60
asg21
S'-80.235469'
p61
sg23
S'GORDON ST AT DEAN AVE'
p62
sba(i__main__
Stop
p63
(dp64
g3
S'43.531512'
p65
sg5
(lp66
S'2A'
p67
aS'Route3B'
p68
aS'Route21'
p69
aS'Route5'
p70
aS'Route16'
p71
asg21
S'-80.231928'
p72
sg23
S'GORDON ST AT COLLEGE AVE'
p73
sba(i__main__
Stop
p74
(dp75
g3
S'43.529922'
p76
sg5
(lp77
S'2A'
p78
aS'Route3B'
p79
aS'Route Gordon Corridor'
p80
asg21
S'-80.225029'
p81
sg23
S'UNIVERSITY CENTRE'
p82
sba(i__main__
Stop
p83
(dp84
g3
S'43.520363'
p85
sg5
(lp86
S'2A'
p87
aS'Route15'
p88
aS'Route50'
p89
asg21
S'-80.233352'
p90
sg23
S'STONE RD W AT EDINBURGH RD S'
p91
sba(i__main__
Stop
p92
(dp93
g3
S'43.518846'
p94
sg5
(lp95
S'2A'
p96
aS'Route15'
p97
aS'Route8'
p98
aS'Route50'
p99
asg21
S'-80.239222'
p100
sg23
S'STONE RD W AT STONE RD MALL'
p101
sba(i__main__
Stop
p102
(dp103
g3
S'43.522836'
p104
sg5
(lp105
S'2A'
p106
aS'Route9'
p107
asg21
S'-80.267662'
p108
sg23
S'659 WELLINGTON ST W'
p109
sba(i__main__
Stop
p110
(dp111
g3
S'43.517730'
p112
sg5
(lp113
S'2A'
p114
asg21
S'-80.270448'
p115
sg23
S'FIFE RD AT WELLINGTON ST W'
p116
sba(i__main__
Stop
p117
(dp118
g3
S'43.515674'
p119
sg5
(lp120
S'2A'
p121
asg21
S'-80.273254'
p122
sg23
S'FIFE RD AT GATEWAY DR'
p123
sba(i__main__
Stop
p124
(dp125
g3
S'43.513766'
p126
sg5
(lp127
S'2A'
p128
asg21
S'-80.275861'
p129
sg23
S'FIFE RD AT DEERFIELD PL'
p130
sba(i__main__
Stop
p131
(dp132
g3
S'43.516248'
p133
sg5
(lp134
S'2A'
p135
asg21
S'-80.278614'
p136
sg23
S'ELMIRA RD AT WEST ACRES DR'
p137
sba(i__main__
Stop
p138
(dp139
g3
S'43.518995'
p140
sg5
(lp141
S'2A'
p142
asg21
S'-80.282143'
p143
sg23
S'254 ELMIRA RD'
p144
sba(i__main__
Stop
p145
(dp146
g3
S'43.521123'
p147
sg5
(lp148
S'2A'
p149
asg21
S'-80.287336'
p150
sg23
S'ELMIRA RD AT STEPHANIE DR'
p151
sba(i__main__
Stop
p152
(dp153
g3
S'43.522818'
p154
sg5
(lp155
S'2A'
p156
asg21
S'-80.291611'
p157
sg23
S'ELMIRA RD AT ZEHRS'
p158
sba(i__main__
Stop
p159
(dp160
g3
S'43.523519'
p161
sg5
(lp162
S'2A'
p163
asg21
S'-80.293107'
p164
sg23
S'ELMIRA RD AT WEST END COMMUNITY CENTRE'
p165
sba(i__main__
Stop
p166
(dp167
g3
S'43.527343'
p168
sg5
(lp169
S'2A'
p170
asg21
S'-80.296881'
p171
sg23
S'WILLOW RD AT FLAHERTY DR'
p172
sba(i__main__
Stop
p173
(dp174
g3
S'43.528815'
p175
sg5
(lp176
S'2A'
p177
asg21
S'-80.292010'
p178
sg23
S'IMPERIAL RD N AT WILLOW RD'
p179
sba(i__main__
Stop
p180
(dp181
g3
S'43.531740'
p182
sg5
(lp183
S'2A'
p184
asg21
S'-80.294166'
p185
sg23
S'IMPERIAL RD N AT DUNHILL CRES'
p186
sba(i__main__
Stop
p187
(dp188
g3
S'43.535013'
p189
sg5
(lp190
S'2A'
p191
asg21
S'-80.294655'
p192
sg23
S'IMPERIAL RD N AT WESTWOOD RD'
p193
sba(i__main__
Stop
p194
(dp195
g3
S'43.537331'
p196
sg5
(lp197
S'2A'
p198
asg21
S'-80.297226'
p199
sg23
S'IMPERIAL RD N AT SPEEDVALE AVE W'
p200
sba(i__main__
Stop
p201
(dp202
g3
S'43.539986'
p203
sg5
(lp204
S'2A'
p205
asg21
S'-80.294035'
p206
sg23
S'ARC INDUSTRIES'
p207
sba(i__main__
Stop
p208
(dp209
g3
S'43.543038'
p210
sg5
(lp211
S'2A'
p212
asg21
S'-80.298273'
p213
sg23
S'ROYAL RD AT MASSEY RD (GUELPH TOOL)'
p214
sba(i__main__
Stop
p215
(dp216
g3
S'43.540892'
p217
sg5
(lp218
S'2A'
p219
asg21
S'-80.301824'
p220
sg23
S'MASSEY RD AT IMPERIAL RD'
p221
sba(i__main__
Stop
p222
(dp223
g3
S'43.543610'
p224
sg5
(lp225
S'2A'
p226
asg21
S'-80.305658'
p227
sg23
S'IMPERIAL RD N AT WOODLAWN RD W'
p228
sba(i__main__
Stop
p229
(dp230
g3
S'43.545962'
p231
sg5
(lp232
S'2A'
p233
asg21
S'-80.303449'
p234
sg23
S'WOODLAWN RD W AT ROYAL RD'
p235
sba(i__main__
Stop
p236
(dp237
g3
S'43.548807'
p238
sg5
(lp239
S'2A'
p240
asg21
S'-80.299496'
p241
sg23
S'WOODLAWN RD W AT REGAL RD'
p242
sba(i__main__
Stop
p243
(dp244
g3
S'43.551565'
p245
sg5
(lp246
S'2A'
p247
asg21
S'-80.295489'
p248
sg23
S'WOODLAWN RD W AT SILVERCREEK PKWY N'
p249
sba(i__main__
Stop
p250
(dp251
g3
S'43.556114'
p252
sg5
(lp253
S'2A'
p254
asg21
S'-80.289684'
p255
sg23
S'WOODLAWN RD W AT DAWSON RD'
p256
sba(i__main__
Stop
p257
(dp258
g3
S'43.558558'
p259
sg5
(lp260
S'2A'
p261
asg21
S'-80.286155'
p262
sg23
S'WOODLAWN RD W AT EDINBURGH RD N'
p263
sba(i__main__
Stop
p264
(dp265
g3
S'43.560592'
p266
sg5
(lp267
S'2A'
p268
asg21
S'-80.283493'
p269
sg23
S'WOODLAWN RD W AT NICKLIN RD'
p270
sba(i__main__
Stop
p271
(dp272
g3
S'43.564044'
p273
sg5
(lp274
S'2A'
p275
asg21
S'-80.281632'
p276
sg23
S'SMART CENTRE GUELPH'
p277
sba(i__main__
Stop
p278
(dp279
g3
S'43.562030'
p280
sg5
(lp281
S'2A'
p282
asg21
S'-80.273414'
p283
sg23
S'WOOLWICH ST AT MARILYN DR'
p284
sba(i__main__
Stop
p285
(dp286
g3
S'43.559760'
p287
sg5
(lp288
S'2A'
p289
asg21
S'-80.270265'
p290
sg23
S'WOOLWICH ST AT EVERGREEN'
p291
sba(i__main__
Stop
p292
(dp293
g3
S'43.556809'
p294
sg5
(lp295
S'2A'
p296
asg21
S'-80.266247'
p297
sg23
S'WOOLWICH ST AT MAC AVE'
p298
sba(i__main__
Stop
p299
(dp300
g3
S'43.552521'
p301
sg5
(lp302
S'2A'
p303
asg21
S'-80.260325'
p304
sg23
S'WOOLWICH ST AT TIFFANY ST'
p305
sba(i__main__
Stop
p306
(dp307
g3
S'43.549780'
p308
sg5
(lp309
S'2A'
p310
asg21
S'-80.256575'
p311
sg23
S'WOOLWICH ST AT LONDON RD'
p312
sba(i__main__
Stop
p313
(dp314
g3
S'43.548027'
p315
sg5
(lp316
S'2A'
p317
aS'Route3B'
p318
asg21
S'-80.25168'
p319
sg23
S'160 WOOLWICH'
p320
sba(i__main__
Stop
p321
(dp322
g3
S'43.545578'
p323
sg5
(lp324
S'2A'
p325
aS'Route3B'
p326
aS'Route10'
p327
aS'Route11'
p328
aS'Route20'
p329
aS'Route12'
p330
aS'Route13'
p331
asg21
S'-80.249017'
p332
sg23
S'WYNDHAM AT IF SHOE STORE'
p333
sba(i__main__
Stop
p334
(dp335
g3
S'43.546441'
p336
sg5
(lp337
S'Route2B'
p338
aS'Route12'
p339
aS'Route13'
p340
aS'Route3A'
p341
asg21
S'-80.249537'
p342
sg23
S'WYNDHAM ST AT BANK OF NOVA SCOTIA'
p343
sba(i__main__
Stop
p344
(dp345
g3
S'43.548158'
p346
sg5
(lp347
S'Route2B'
p348
aS'Route3A'
p349
asg21
S'-80.251279'
p350
sg23
S'WOOLWICH ST AT CARDIGAN ST'
p351
sba(i__main__
Stop
p352
(dp353
g3
S'43.548768'
p354
sg5
(lp355
S'Route2B'
p356
aS'Route20'
p357
asg21
S'-80.254949'
p358
sg23
S'WOOLWICH ST AT NORWICH ST'
p359
sba(i__main__
Stop
p360
(dp361
g3
S'43.550097'
p362
sg5
(lp363
S'Route2B'
p364
asg21
S'-80.256667'
p365
sg23
S'WOOLWICH ST AT LONDON RD'
p366
sba(i__main__
Stop
p367
(dp368
g3
S'43.551876'
p369
sg5
(lp370
S'Route2B'
p371
asg21
S'-80.259149'
p372
sg23
S'WOOLWICH ST AT KERR ST'
p373
sba(i__main__
Stop
p374
(dp375
g3
S'43.553105'
p376
sg5
(lp377
S'Route2B'
p378
asg21
S'-80.260808'
p379
sg23
S'WOOLWICH ST AT POWELL ST'
p380
sba(i__main__
Stop
p381
(dp382
g3
S'43.555942'
p383
sg5
(lp384
S'Route2B'
p385
asg21
S'-80.264759'
p386
sg23
S'WOOLWICH ST AT EARL ST'
p387
sba(i__main__
Stop
p388
(dp389
g3
S'43.558046'
p390
sg5
(lp391
S'Route2B'
p392
asg21
S'-80.267588'
p393
sg23
S'WOOLWICH ST AT SPEEDVALE AVE'
p394
sba(i__main__
Stop
p395
(dp396
g3
S'43.560206'
p397
sg5
(lp398
S'Route2B'
p399
asg21
S'-80.270552'
p400
sg23
S'WOOLWICH ST AT EVERGREEN'
p401
sba(i__main__
Stop
p402
(dp403
g3
S'43.561971'
p404
sg5
(lp405
S'Route2B'
p406
asg21
S'-80.272989'
p407
sg23
S'WOOLWICH ST AT MARILYN DR'
p408
sba(i__main__
Stop
p409
(dp410
g3
S'43.564940'
p411
sg5
(lp412
S'Route2B'
p413
asg21
S'-80.279664'
p414
sg23
S'SMART CENTRE GUELPH'
p415
sba(i__main__
Stop
p416
(dp417
g3
S'43.561001'
p418
sg5
(lp419
S'Route2B'
p420
asg21
S'-80.283145'
p421
sg23
S'WOODLAWN RD W AT NICKLIN RD'
p422
sba(i__main__
Stop
p423
(dp424
g3
S'43.558487'
p425
sg5
(lp426
S'Route2B'
p427
asg21
S'-80.286658'
p428
sg23
S'WOODLAWN RD W AT EDINBURGH RD N'
p429
sba(i__main__
Stop
p430
(dp431
g3
S'43.556826'
p432
sg5
(lp433
S'Route2B'
p434
asg21
S'-80.288946'
p435
sg23
S'WOODLAWN RD W AT DAWSON RD'
p436
sba(i__main__
Stop
p437
(dp438
g3
S'43.554156'
p439
sg5
(lp440
S'Route2B'
p441
asg21
S'-80.292659'
p442
sg23
S'WOODLAWN RD W AT ARROW RD'
p443
sba(i__main__
Stop
p444
(dp445
g3
S'43.551719'
p446
sg5
(lp447
S'Route2B'
p448
asg21
S'-80.295956'
p449
sg23
S'WOODLAWN RD W AT SILVERCREEK PKWY N'
p450
sba(i__main__
Stop
p451
(dp452
g3
S'43.548709'
p453
sg5
(lp454
S'Route2B'
p455
asg21
S'-80.300078'
p456
sg23
S'WOODLAWN RD W AT REGAL RD'
p457
sba(i__main__
Stop
p458
(dp459
g3
S'43.546404'
p460
sg5
(lp461
S'Route2B'
p462
asg21
S'-80.303239'
p463
sg23
S'WOODLAWN RD W AT ROYAL RD'
p464
sba(i__main__
Stop
p465
(dp466
g3
S'43.543469'
p467
sg5
(lp468
S'Route2B'
p469
asg21
S'-80.305876'
p470
sg23
S'IMPERIAL RD N AT WOODLAWN RD W'
p471
sba(i__main__
Stop
p472
(dp473
g3
S'43.540880'
p474
sg5
(lp475
S'Route2B'
p476
asg21
S'-80.301154'
p477
sg23
S'MASSEY RD AT IMPERIAL RD N'
p478
sba(i__main__
Stop
p479
(dp480
g3
S'43.542591'
p481
sg5
(lp482
S'Route2B'
p483
asg21
S'-80.298386'
p484
sg23
S'ROYAL RD AT MASSEY RD'
p485
sba(i__main__
Stop
p486
(dp487
g3
S'43.539916'
p488
sg5
(lp489
S'Route2B'
p490
asg21
S'-80.294588'
p491
sg23
S'ROYAL AT ARC INDUSTRIES'
p492
sba(i__main__
Stop
p493
(dp494
g3
S'43.536579'
p495
sg5
(lp496
S'Route2B'
p497
asg21
S'-80.296369'
p498
sg23
S'IMPERIAL RD N AT SPEEDVALE AVE W'
p499
sba(i__main__
Stop
p500
(dp501
g3
S'43.534097297637125'
p502
sg5
(lp503
S'Route2B'
p504
asg21
S'-80.294730'
p505
sg23
S'IMPERIAL RD N AT THORNHILL DR'
p506
sba(i__main__
Stop
p507
(dp508
g3
S'43.530773'
p509
sg5
(lp510
S'Route2B'
p511
asg21
S'-80.294209'
p512
sg23
S'IMPERIAL RD N AT KIPLING AVE'
p513
sba(i__main__
Stop
p514
(dp515
g3
S'43.528717'
p516
sg5
(lp517
S'Route2B'
p518
asg21
S'-80.292316'
p519
sg23
S'IMPERIAL RD N AT WILLOW RD'
p520
sba(i__main__
Stop
p521
(dp522
g3
S'43.527623'
p523
sg5
(lp524
S'Route2B'
p525
asg21
S'-80.296562'
p526
sg23
S'WILLOW RD AT FLAHERTY DR'
p527
sba(i__main__
Stop
p528
(dp529
g3
S'43.523239'
p530
sg5
(lp531
S'Route2B'
p532
asg21
S'-80.293729'
p533
sg23
S'ELMIRA RD AT WEST END COMMUNITY CENTRE'
p534
sba(i__main__
Stop
p535
(dp536
g3
S'43.521827'
p537
sg5
(lp538
S'Route2B'
p539
asg21
S'-80.289727'
p540
sg23
S'ELMIRA RD AT PAISLEY'
p541
sba(i__main__
Stop
p542
(dp543
g3
S'43.518734'
p544
sg5
(lp545
S'Route2B'
p546
asg21
S'-80.281997'
p547
sg23
S'ELMIRA RD AT FRESH MEADOW WAY'
p548
sba(i__main__
Stop
p549
(dp550
g3
S'43.516498'
p551
sg5
(lp552
S'Route2B'
p553
asg21
S'-80.279127'
p554
sg23
S'ELMIRA RD AT ROCHELLE DR'
p555
sba(i__main__
Stop
p556
(dp557
g3
S'43.513936'
p558
sg5
(lp559
S'Route2B'
p560
asg21
S'-80.275264'
p561
sg23
S'FIFE RD AT ELMIRA RD'
p562
sba(i__main__
Stop
p563
(dp564
g3
S'43.513878'
p565
sg5
(lp566
S'Route2B'
p567
asg21
S'-80.275337'
p568
sg23
S'FIFE RD AT GATEWAY DR'
p569
sba(i__main__
Stop
p570
(dp571
g3
S'43.517774'
p572
sg5
(lp573
S'Route2B'
p574
asg21
S'-80.270061'
p575
sg23
S'26 FIFE RD AT COOP'
p576
sba(i__main__
Stop
p577
(dp578
g3
S'43.522874'
p579
sg5
(lp580
S'Route2B'
p581
asg21
S'-80.267234'
p582
sg23
S'WELLINGTON ST W AT WASTEWATER TREATMENT PLANT'
p583
sba(i__main__
Stop
p584
(dp585
g3
S'43.516108'
p586
sg5
(lp587
S'Route2B'
p588
aS'Route1B'
p589
aS'Route6'
p590
asg21
S'-80.238548'
p591
sg23
S'STONE RD W AT SCOTTSDALE DR'
p592
sba(i__main__
Stop
p593
(dp594
g3
S'43.517578'
p595
sg5
(lp596
S'Route2B'
p597
aS'Route1B'
p598
aS'Route6'
p599
asg21
S'-80.236634'
p600
sg23
S'372 STONE RD W'
p601
sba(i__main__
Stop
p602
(dp603
g3
S'43.519475'
p604
sg5
(lp605
S'Route2B'
p606
aS'Route1B'
p607
aS'Route6'
p608
asg21
S'-80.234214'
p609
sg23
S'292 STONE RD W'
p610
sba(i__main__
Stop
p611
(dp612
g3
S'43.521656'
p613
sg5
(lp614
S'Route2B'
p615
asg21
S'-80.2312633395195'
p616
sg23
S'STONE RD OPPOSITE ZELLERS'
p617
sba(i__main__
Stop
p618
(dp619
g3
S'43.524669'
p620
sg5
(lp621
S'Route2B'
p622
asg21
S'-80.227194'
p623
sg23
S'95 STONE RD W'
p624
sba(i__main__
Stop
p625
(dp626
g3
S'43.530139'
p627
sg5
(lp628
S'Route2B'
p629
asg21
S'-80.225671'
p630
sg23
S'UNIVERSITY CENTRE'
p631
sba(i__main__
Stop
p632
(dp633
g3
S'43.531442'
p634
sg5
(lp635
S'Route2B'
p636
aS'Route3A'
p637
aS'Route5'
p638
aS'Route16'
p639
asg21
S'-80.231459'
p640
sg23
S'GORDON ST AT VET COLLEGE'
p641
sba(i__main__
Stop
p642
(dp643
g3
S'43.532842'
p644
sg5
(lp645
S'Route2B'
p646
aS'Route3A'
p647
aS'Route5'
p648
aS'Route16'
p649
asg21
S'-80.233321'
p650
sg23
S'GORDON ST AT MACDONALD STEWART ART CENTRE'
p651
sba(i__main__
Stop
p652
(dp653
g3
S'43.536904'
p654
sg5
(lp655
S'Route2B'
p656
aS'Route3A'
p657
aS'Route5'
p658
aS'Route16'
p659
asg21
S'-80.239148'
p660
sg23
S'GORDON ST AT DORMIE LANE'
p661
sba(i__main__
Stop
p662
(dp663
g3
S'43.538124'
p664
sg5
(lp665
S'Route2B'
p666
aS'Route3A'
p667
aS'Route5'
p668
aS'Route16'
p669
asg21
S'-80.240880'
p670
sg23
S'GORDON ST AT WATER ST'
p671
sba(i__main__
Stop
p672
(dp673
g3
S'43.541440'
p674
sg5
(lp675
S'Route2B'
p676
aS'Route16'
p677
asg21
S'-80.244076'
p678
sg23
S'WELLINGTON ST AT WELLINGTON PLAZA'
p679
sba(i__main__
Stop
p680
(dp681
g3
S'43.543369'
p682
sg5
(lp683
S'Route2B'
p684
aS'Route16'
p685
asg21
S'-80.245192'
p686
sg23
S'WYNDHAM ST AT FOUNTAIN ST'
p687
sba(i__main__
Stop
p688
(dp689
g3
S'43.545892'
p690
sg5
(lp691
S'Route2B'
p692
aS'Route3A'
p693
asg21
S'-80.249020'
p694
sg23
S'GUELPH CENTRAL STATION'
p695
sba(i__main__
Stop
p696
(dp697
g3
S'43.541749'
p698
sg5
(lp699
S'Route3B'
p700
asg21
S'-80.247968'
p701
sg23
S'GORDON ST AT NOTTINGHAM ST'
p702
sba(i__main__
Stop
p703
(dp704
g3
S'43.533101'
p705
sg5
(lp706
S'Route3B'
p707
asg21
S'-80.215941'
p708
sg23
S'STONE RD E AT ARBOUR MEDICAL CENTRE'
p709
sba(i__main__
Stop
p710
(dp711
g3
S'43.538966'
p712
sg5
(lp713
S'Route3B'
p714
aS'Route56'
p715
asg21
S'-80.208101'
p716
sg23
S'VICTORIA RD S AT STONE RD E'
p717
sba(i__main__
Stop
p718
(dp719
g3
S'43.552095'
p720
sg5
(lp721
S'Route3B'
p722
asg21
S'-80.223504'
p723
sg23
S'535 YORK RD AT TIM HORTONS'
p724
sba(i__main__
Stop
p725
(dp726
g3
S'43.554649'
p727
sg5
(lp728
S'Route3B'
p729
asg21
S'-80.22002'
p730
sg23
S'YORK RD AT BEAUMONT CRES'
p731
sba(i__main__
Stop
p732
(dp733
g3
S'43.556909'
p734
sg5
(lp735
S'Route3B'
p736
asg21
S'-80.216868'
p737
sg23
S'728 YORK RD'
p738
sba(i__main__
Stop
p739
(dp740
g3
S'43.558812'
p741
sg5
(lp742
S'Route3B'
p743
asg21
S'-80.214229'
p744
sg23
S'785 YORK RD'
p745
sba(i__main__
Stop
p746
(dp747
g3
S'43.561500'
p748
sg5
(lp749
S'Route3B'
p750
asg21
S'-80.210523'
p751
sg23
S'YORK RD AT WATSON PKWY N'
p752
sba(i__main__
Stop
p753
(dp754
g3
S'43.566523'
p755
sg5
(lp756
S'Route3B'
p757
asg21
S'-80.211495'
p758
sg23
S'WATSON PKWY N OPPOSITE LIBRARY'
p759
sba(i__main__
Stop
p760
(dp761
g3
S'43.570403'
p762
sg5
(lp763
S'Route3B'
p764
asg21
S'-80.213451'
p765
sg23
S'WATSON PKWY N AT FLEMING RD'
p766
sba(i__main__
Stop
p767
(dp768
g3
S'43.573888'
p769
sg5
(lp770
S'Route3B'
p771
asg21
S'-80.218251'
p772
sg23
S'WATSON PKWY N AT GRANGE RD'
p773
sba(i__main__
Stop
p774
(dp775
g3
S'43.577843'
p776
sg5
(lp777
S'Route3B'
p778
asg21
S'-80.223768'
p779
sg23
S'WATSON PKWY N AT  EASTVIEW RD'
p780
sba(i__main__
Stop
p781
(dp782
g3
S'43.572774'
p783
sg5
(lp784
S'Route3B'
p785
asg21
S'-80.231459'
p786
sg23
S'EASTVIEW RD AT SUMMIT RIDGE DR'
p787
sba(i__main__
Stop
p788
(dp789
g3
S'43.570083'
p790
sg5
(lp791
S'Route3B'
p792
asg21
S'-80.235092'
p793
sg23
S'EASTVIEW RD AT STARWOOD DR'
p794
sba(i__main__
Stop
p795
(dp796
g3
S'43.567393'
p797
sg5
(lp798
S'Route3B'
p799
aS'Route13'
p800
asg21
S'-80.238771'
p801
sg23
S'EASTVIEW RD AT MOUNTFORD DR'
p802
sba(i__main__
Stop
p803
(dp804
g3
S'43.565032'
p805
sg5
(lp806
S'Route3B'
p807
aS'Route13'
p808
asg21
S'-80.241989'
p809
sg23
S'EASTVIEW RD AT VICTORIA RD'
p810
sba(i__main__
Stop
p811
(dp812
g3
S'43.567067'
p813
sg5
(lp814
S'Route3B'
p815
aS'Route13'
p816
asg21
S'-80.244971'
p817
sg23
S'211 VICTORIA RD N'
p818
sba(i__main__
Stop
p819
(dp820
g3
S'43.56962'
p821
sg5
(lp822
S'Route3B'
p823
asg21
S'-80.248568'
p824
sg23
S'VICTORIA RD N AT ERAMOSA RD'
p825
sba(i__main__
Stop
p826
(dp827
g3
S'43.57197'
p828
sg5
(lp829
S'Route3B'
p830
aS'Route12'
p831
asg21
S'-80.251773'
p832
sg23
S'VICTORIA RD N AT SPEEDVALE AVE E'
p833
sba(i__main__
Stop
p834
(dp835
g3
S'43.575281'
p836
sg5
(lp837
S'Route3B'
p838
aS'Route12'
p839
asg21
S'-80.256345'
p840
sg23
S'VICTORIA RD N AT BRANT AVE'
p841
sba(i__main__
Stop
p842
(dp843
g3
S'43.578063'
p844
sg5
(lp845
S'Route3B'
p846
asg21
S'-80.260204'
p847
sg23
S'VICTORIA RD N AT WOODLAWN RD E'
p848
sba(i__main__
Stop
p849
(dp850
g3
S'43.580826'
p851
sg5
(lp852
S'Route3B'
p853
asg21
S'-80.264077'
p854
sg23
S'VICTORIA RD N OPPOSITE TRILLIUM WALDORF'
p855
sba(i__main__
Stop
p856
(dp857
g3
S'43.579009'
p858
sg5
(lp859
S'Route3B'
p860
asg21
S'-80.266687'
p861
sg23
S'INVERNESS DR AT WILTON RD'
p862
sba(i__main__
Stop
p863
(dp864
g3
S'43.576353'
p865
sg5
(lp866
S'Route3B'
p867
asg21
S'-80.262822'
p868
sg23
S'INVERNESS DR AT WOODLAWN RD'
p869
sba(i__main__
Stop
p870
(dp871
g3
S'43.574227'
p872
sg5
(lp873
S'Route3B'
p874
asg21
S'-80.264853'
p875
sg23
S'WOODLAWN RD E AT GOLFVIEW DR'
p876
sba(i__main__
Stop
p877
(dp878
g3
S'43.571818'
p879
sg5
(lp880
S'Route3B'
p881
asg21
S'-80.268227'
p882
sg23
S'WOODLAWN RD E AT COUNTRY CLUB DR'
p883
sba(i__main__
Stop
p884
(dp885
g3
S'43.568609'
p886
sg5
(lp887
S'Route3B'
p888
asg21
S'-80.272695'
p889
sg23
S'WOODLAWN RD E AT RIVERSIDE GLEN'
p890
sba(i__main__
Stop
p891
(dp892
g3
S'43.566001'
p893
sg5
(lp894
S'Route3B'
p895
asg21
S'-80.276314'
p896
sg23
S'WOODLAWN RD E AT CANADIAN TIRE'
p897
sba(i__main__
Stop
p898
(dp899
g3
S'43.56494'
p900
sg5
(lp901
S'Route3B'
p902
asg21
S'-80.279664'
p903
sg23
S'SMART CENTRE GUELPH'
p904
sba(i__main__
Stop
p905
(dp906
g3
S'43.558355'
p907
sg5
(lp908
S'Route3B'
p909
asg21
S'-80.280122'
p910
sg23
S'NICKLIN RD AT BURNS DR'
p911
sba(i__main__
Stop
p912
(dp913
g3
S'43.557298'
p914
sg5
(lp915
S'Route3B'
p916
asg21
S'-80.276217'
p917
sg23
S'BAILEY AVE AT KATHLEEN ST'
p918
sba(i__main__
Stop
p919
(dp920
g3
S'43.555549'
p921
sg5
(lp922
S'Route3B'
p923
asg21
S'-80.27256'
p924
sg23
S'KATHLEEN ST AT SPEEDVALE AVE W'
p925
sba(i__main__
Stop
p926
(dp927
g3
S'43.553154'
p928
sg5
(lp929
S'Route3B'
p930
asg21
S'-80.274126'
p931
sg23
S'WESTMOUNT RD AT KIMBERLEY DR'
p932
sba(i__main__
Stop
p933
(dp934
g3
S'43.549794'
p935
sg5
(lp936
S'Route3B'
p937
asg21
S'-80.269589'
p938
sg23
S"ST JOSEPH'S HEALTH CENTRE"
p939
sba(i__main__
Stop
p940
(dp941
g3
S'43.550158'
p942
sg5
(lp943
S'Route3B'
p944
asg21
S'-80.270008'
p945
sg23
S'WESTMOUNT RD AT DIVISION ST'
p946
sba(i__main__
Stop
p947
(dp948
g3
S'43.548554'
p949
sg5
(lp950
S'Route3B'
p951
asg21
S'-80.267786'
p952
sg23
S'WESTMOUNT RD AT LOURDES'
p953
sba(i__main__
Stop
p954
(dp955
g3
S'43.545476'
p956
sg5
(lp957
S'Route3B'
p958
asg21
S'-80.263459'
p959
sg23
S'WESTMOUNT RD AT LONDON RD W'
p960
sba(i__main__
Stop
p961
(dp962
g3
S'43.545781'
p963
sg5
(lp964
S'Route3B'
p965
asg21
S'-80.261342'
p966
sg23
S'YORKSHIRE ST N AT HOME ST'
p967
sba(i__main__
Stop
p968
(dp969
g3
S'43.545368'
p970
sg5
(lp971
S'Route3B'
p972
asg21
S'-80.258562'
p973
sg23
S'SUFFOLK ST AT GLASGOW ST'
p974
sba(i__main__
Stop
p975
(dp976
g3
S'43.546335'
p977
sg5
(lp978
S'Route3B'
p979
asg21
S'-80.256689'
p980
sg23
S'SUFFOLK ST AT DUBLIN ST CHURCH'
p981
sba(i__main__
Stop
p982
(dp983
g3
S'43.54582712'
p984
sg5
(lp985
S'Route4'
p986
asg21
S'-80.24580414'
p987
sg23
S'GUELPH CENTRAL STATION'
p988
sba(i__main__
Stop
p989
(dp990
g3
S'43.54413676'
p991
sg5
(lp992
S'Route4'
p993
asg21
S'-80.24097264'
p994
sg23
S'NEEVE ST AT ONTARIO ST'
p995
sba(i__main__
Stop
p996
(dp997
g3
S'43.54470417'
p998
sg5
(lp999
S'Route4'
p1000
asg21
S'-80.23730491'
p1001
sg23
S'ONTARIO ST AT MANITOBA ST'
p1002
sba(i__main__
Stop
p1003
(dp1004
g3
S'43.54520196'
p1005
sg5
(lp1006
S'Route4'
p1007
asg21
S'-80.23469665'
p1008
sg23
S'168 ONTARIO ST'
p1009
sba(i__main__
Stop
p1010
(dp1011
g3
S'43.54552549'
p1012
sg5
(lp1013
S'Route4'
p1014
asg21
S'-80.23274047'
p1015
sg23
S'ONTARIO ST AT YORK RD'
p1016
sba(i__main__
Stop
p1017
(dp1018
g3
S'43.54671213'
p1019
sg5
(lp1020
S'Route4'
p1021
asg21
S'-80.23080247'
p1022
sg23
S'YORK RD AT MORRIS ST'
p1023
sba(i__main__
Stop
p1024
(dp1025
g3
S'43.54913612'
p1026
sg5
(lp1027
S'Route4'
p1028
asg21
S'-80.22756837'
p1029
sg23
S'YORK RD AT BROCKVILLE AVE'
p1030
sba(i__main__
Stop
p1031
(dp1032
g3
S'43.55078627'
p1033
sg5
(lp1034
S'Route4'
p1035
asg21
S'-80.22533313'
p1036
sg23
S'YORK RD AT AUDREY AVE'
p1037
sba(i__main__
Stop
p1038
(dp1039
g3
S'43.55223214'
p1040
sg5
(lp1041
S'Route4'
p1042
asg21
S'-80.22329365'
p1043
sg23
S'535 YORK RD AT TIM HORTONS'
p1044
sba(i__main__
Stop
p1045
(dp1046
g3
S'43.55458284'
p1047
sg5
(lp1048
S'Route4'
p1049
asg21
S'-80.22014686'
p1050
sg23
S'YORK RD AT BEAUMONT CRES'
p1051
sba(i__main__
Stop
p1052
(dp1053
g3
S'43.55693523'
p1054
sg5
(lp1055
S'Route4'
p1056
asg21
S'-80.21688324'
p1057
sg23
S'728 YORK RD'
p1058
sba(i__main__
Stop
p1059
(dp1060
g3
S'43.55872643'
p1061
sg5
(lp1062
S'Route4'
p1063
asg21
S'-80.21438384'
p1064
sg23
S'895 YORK RD'
p1065
sba(i__main__
Stop
p1066
(dp1067
g3
S'43.56153565'
p1068
sg5
(lp1069
S'Route4'
p1070
asg21
S'-80.21054688'
p1071
sg23
S'YORK RD AT WATSON PKWY N'
p1072
sba(i__main__
Stop
p1073
(dp1074
g3
S'43.56350386'
p1075
sg5
(lp1076
S'Route4'
p1077
asg21
S'-80.20788965'
p1078
sg23
S'YORK RD AT GRANITEWORX'
p1079
sba(i__main__
Stop
p1080
(dp1081
g3
S'43.56449176'
p1082
sg5
(lp1083
S'Route4'
p1084
asg21
S'-80.20546404'
p1085
sg23
S'WATSON RD S AT YORK RD'
p1086
sba(i__main__
Stop
p1087
(dp1088
g3
S'43.56243048'
p1089
sg5
(lp1090
S'Route4'
p1091
asg21
S'-80.20258634'
p1092
sg23
S'WATSON RD S AT AIRPARK PL'
p1093
sba(i__main__
Stop
p1094
(dp1095
g3
S'43.5605435'
p1096
sg5
(lp1097
S'Route4'
p1098
asg21
S'-80.19994552'
p1099
sg23
S'WATSON RD S AT GUELPH TRANSIT CENTRE'
p1100
sba(i__main__
Stop
p1101
(dp1102
g3
S'43.55799165'
p1103
sg5
(lp1104
S'Route4'
p1105
asg21
S'-80.19896715'
p1106
sg23
S'WATSON PKWY S AT DUNLOP DR'
p1107
sba(i__main__
Stop
p1108
(dp1109
g3
S'43.55905022'
p1110
sg5
(lp1111
S'Route4'
p1112
asg21
S'-80.20286232'
p1113
sg23
S'WATSON PKWY S AT CARGILL'
p1114
sba(i__main__
Stop
p1115
(dp1116
g3
S'43.56028046'
p1117
sg5
(lp1118
S'Route4'
p1119
asg21
S'-80.20619722'
p1120
sg23
S'WATSON PKWY S AT TAGGERT ST'
p1121
sba(i__main__
Stop
p1122
(dp1123
g3
S'43.56151064'
p1124
sg5
(lp1125
S'Route4'
p1126
asg21
S'-80.21082655'
p1127
sg23
S'YORK RD AT WATSON PKWY N'
p1128
sba(i__main__
Stop
p1129
(dp1130
g3
S'43.55847725'
p1131
sg5
(lp1132
S'Route4'
p1133
asg21
S'-80.21503684'
p1134
sg23
S'YORK RD AT YORKHAVEN PL'
p1135
sba(i__main__
Stop
p1136
(dp1137
g3
S'43.55703595'
p1138
sg5
(lp1139
S'Route4'
p1140
asg21
S'-80.21700185'
p1141
sg23
S'YORK RD AT ROYAL CITY JAYCEES PARK'
p1142
sba(i__main__
Stop
p1143
(dp1144
g3
S'43.55493605'
p1145
sg5
(lp1146
S'Route4'
p1147
asg21
S'-80.21990711'
p1148
sg23
S'YORK RD AT BEAUMONT CRES'
p1149
sba(i__main__
Stop
p1150
(dp1151
g3
S'43.55154516'
p1152
sg5
(lp1153
S'Route4'
p1154
asg21
S'-80.22455892'
p1155
sg23
S'YORK RD AT VICTORIA RD'
p1156
sba(i__main__
Stop
p1157
(dp1158
g3
S'43.54905218'
p1159
sg5
(lp1160
S'Route4'
p1161
asg21
S'-80.22787225'
p1162
sg23
S'YORK RD AT BROCKVILLE AVE'
p1163
sba(i__main__
Stop
p1164
(dp1165
g3
S'43.54753114'
p1166
sg5
(lp1167
S'Route4'
p1168
asg21
S'-80.22995403'
p1169
sg23
S'YORK RD AT HARRIS ST'
p1170
sba(i__main__
Stop
p1171
(dp1172
g3
S'43.5456181'
p1173
sg5
(lp1174
S'Route4'
p1175
asg21
S'-80.23307566'
p1176
sg23
S'ONTARIO ST AT HURON ST'
p1177
sba(i__main__
Stop
p1178
(dp1179
g3
S'43.54485745'
p1180
sg5
(lp1181
S'Route4'
p1182
asg21
S'-80.23718307'
p1183
sg23
S'70 ONTARIO ST'
p1184
sba(i__main__
Stop
p1185
(dp1186
g3
S'43.54426392'
p1187
sg5
(lp1188
S'Route4'
p1189
asg21
S'-80.2402114'
p1190
sg23
S'ONTARIO ST AT NEEVE ST'
p1191
sba(i__main__
Stop
p1192
(dp1193
g3
S'43.56127596'
p1194
sg5
(lp1195
S'Route4'
p1196
asg21
S'-80.20764978'
p1197
sg23
S'GUELPH CENTRAL STATION'
p1198
sba(i__main__
Stop
p1199
(dp1200
g3
S'43.545395'
p1201
sg5
(lp1202
S'Route10'
p1203
asg21
S'-80.246324'
p1204
sg23
S'GUELPH CENTRAL STATION'
p1205
sba(i__main__
Stop
p1206
(dp1207
g3
S'43.545816'
p1208
sg5
(lp1209
S'Route10'
p1210
asg21
S'-80.249985'
p1211
sg23
S'QUEBEC ST AT BMO'
p1212
sba(i__main__
Stop
p1213
(dp1214
g3
S'43.545416'
p1215
sg5
(lp1216
S'Route10'
p1217
asg21
S'-80.252869'
p1218
sg23
S'PAISLEY ST AT LIBRARY'
p1219
sba(i__main__
Stop
p1220
(dp1221
g3
S'43.543483'
p1222
sg5
(lp1223
S'Route10'
p1224
asg21
S'-80.256727'
p1225
sg23
S'PAISLEY ST AT GLASGOW ST'
p1226
sba(i__main__
Stop
p1227
(dp1228
g3
S'43.542421'
p1229
sg5
(lp1230
S'Route10'
p1231
asg21
S'-80.258820'
p1232
sg23
S'PAISLEY ST AT GCVI'
p1233
sba(i__main__
Stop
p1234
(dp1235
g3
S'43.541522'
p1236
sg5
(lp1237
S'Route10'
p1238
asg21
S'-80.260557'
p1239
sg23
S'PAISLEY ST AT HARRISON AVE'
p1240
sba(i__main__
Stop
p1241
(dp1242
g3
S'43.540699'
p1243
sg5
(lp1244
S'Route10'
p1245
asg21
S'-80.263171'
p1246
sg23
S'PAISLEY ST AT EDINBURGH RD N'
p1247
sba(i__main__
Stop
p1248
(dp1249
g3
S'43.538862'
p1250
sg5
(lp1251
S'Route10'
p1252
asg21
S'-80.265657'
p1253
sg23
S'PAISLEY RD AT ALMA ST'
p1254
sba(i__main__
Stop
p1255
(dp1256
g3
S'43.536467'
p1257
sg5
(lp1258
S'Route10'
p1259
asg21
S'-80.268935'
p1260
sg23
S'PAISLEY RD AT WESTERN AVE'
p1261
sba(i__main__
Stop
p1262
(dp1263
g3
S'43.534616'
p1264
sg5
(lp1265
S'Route10'
p1266
asg21
S'-80.271486'
p1267
sg23
S'PAISLEY RD AT HEATH RD'
p1268
sba(i__main__
Stop
p1269
(dp1270
g3
S'43.535150'
p1271
sg5
(lp1272
S'Route10'
p1273
asg21
S'-80.275370'
p1274
sg23
S'WESTWOOD RD AT SILVERCREEK PKWY N'
p1275
sba(i__main__
Stop
p1276
(dp1277
g3
S'43.532712'
p1278
sg5
(lp1279
S'Route10'
p1280
asg21
S'-80.278921'
p1281
sg23
S'85 WESTWOOD RD'
p1282
sba(i__main__
Stop
p1283
(dp1284
g3
S'43.532762'
p1285
sg5
(lp1286
S'Route10'
p1287
asg21
S'-80.285243'
p1288
sg23
S'225 WESTWOOD RD'
p1289
sba(i__main__
Stop
p1290
(dp1291
g3
S'43.533285'
p1292
sg5
(lp1293
S'Route10'
p1294
aS'Route20'
p1295
asg21
S'-80.288209'
p1296
sg23
S'WILLOW RD AT WESTWOOD RD'
p1297
sba(i__main__
Stop
p1298
(dp1299
g3
S'43.531384'
p1300
sg5
(lp1301
S'Route10'
p1302
asg21
S'-80.290685'
p1303
sg23
S'577 WILLOW RD AT CHURCH'
p1304
sba(i__main__
Stop
p1305
(dp1306
g3
S'43.527646'
p1307
sg5
(lp1308
S'Route10'
p1309
asg21
S'-80.290672'
p1310
sg23
S'IMPERIAL RD S AT FERMAN DR'
p1311
sba(i__main__
Stop
p1312
(dp1313
g3
S'43.522344'
p1314
sg5
(lp1315
S'Route10'
p1316
asg21
S'-80.291079'
p1317
sg23
S'WEST END COMMUNITY CENTRE'
p1318
sba(i__main__
Stop
p1319
(dp1320
g3
S'43.526110'
p1321
sg5
(lp1322
S'Route10'
p1323
asg21
S'-80.285423'
p1324
sg23
S'926 PAISLEY RD'
p1325
sba(i__main__
Stop
p1326
(dp1327
g3
S'43.529005'
p1328
sg5
(lp1329
S'Route10'
p1330
asg21
S'-80.279237'
p1331
sg23
S'PAISLEY RD AT CANDLEWOOD DR'
p1332
sba(i__main__
Stop
p1333
(dp1334
g3
S'43.530899'
p1335
sg5
(lp1336
S'Route10'
p1337
asg21
S'-80.276021'
p1338
sg23
S'PAISLEY RD AT WEST HILL ESTATES'
p1339
sba(i__main__
Stop
p1340
(dp1341
g3
S'43.534478'
p1342
sg5
(lp1343
S'Route10'
p1344
asg21
S'-80.271486'
p1345
sg23
S'PAISLEY RD AT HEATH RD'
p1346
sba(i__main__
Stop
p1347
(dp1348
g3
S'43.536911'
p1349
sg5
(lp1350
S'Route10'
p1351
asg21
S'-80.268142'
p1352
sg23
S'PAISLEY RD AT GOLDIE AVE'
p1353
sba(i__main__
Stop
p1354
(dp1355
g3
S'43.538742'
p1356
sg5
(lp1357
S'Route10'
p1358
asg21
S'-80.265622'
p1359
sg23
S'PAISLEY RD AT ALMA ST'
p1360
sba(i__main__
Stop
p1361
(dp1362
g3
S'43.540451'
p1363
sg5
(lp1364
S'Route10'
p1365
asg21
S'-80.263289'
p1366
sg23
S'PAISLEY RD AT EDINBURGH RD N'
p1367
sba(i__main__
Stop
p1368
(dp1369
g3
S'43.542516'
p1370
sg5
(lp1371
S'Route10'
p1372
aS'Route11'
p1373
asg21
S'-80.258347'
p1374
sg23
S'PAISLEY ST AT YORKSHIRE ST N'
p1375
sba(i__main__
Stop
p1376
(dp1377
g3
S'43.543289'
p1378
sg5
(lp1379
S'Route10'
p1380
aS'Route11'
p1381
asg21
S'-80.256822'
p1382
sg23
S'PAISLEY ST AT GLASGOW ST'
p1383
sba(i__main__
Stop
p1384
(dp1385
g3
S'43.545130'
p1386
sg5
(lp1387
S'Route10'
p1388
asg21
S'-80.253188'
p1389
sg23
S'PAISLEY ST AT NORFOLK ST'
p1390
sba(i__main__
Stop
p1391
(dp1392
g3
S'43.544122'
p1393
sg5
(lp1394
S'Route11'
p1395
asg21
S'-80.250720'
p1396
sg23
S'NORFOLK ST AT ALBION'
p1397
sba(i__main__
Stop
p1398
(dp1399
g3
S'43.547351'
p1400
sg5
(lp1401
S'Route11'
p1402
aS'Route3A'
p1403
asg21
S'-80.254939'
p1404
sg23
S'SUFFOLK ST W AT NORFOLK ST'
p1405
sba(i__main__
Stop
p1406
(dp1407
g3
S'43.546415'
p1408
sg5
(lp1409
S'Route11'
p1410
aS'Route3A'
p1411
asg21
S'-80.256760'
p1412
sg23
S'SUFFOLK ST W AT DUBLIN ST'
p1413
sba(i__main__
Stop
p1414
(dp1415
g3
S'43.545548'
p1416
sg5
(lp1417
S'Route11'
p1418
aS'Route3A'
p1419
asg21
S'-80.258462'
p1420
sg23
S'SUFFOLK ST W AT GLASGOW ST'
p1421
sba(i__main__
Stop
p1422
(dp1423
g3
S'43.544199'
p1424
sg5
(lp1425
S'Route11'
p1426
asg21
S'-80.260931'
p1427
sg23
S'SUFFOLK ST W AT YORKSHIRE ST N'
p1428
sba(i__main__
Stop
p1429
(dp1430
g3
S'43.542564'
p1431
sg5
(lp1432
S'Route11'
p1433
asg21
S'-80.264131'
p1434
sg23
S'SUFFOLK ST W AT EDINBURGH RD N'
p1435
sba(i__main__
Stop
p1436
(dp1437
g3
S'43.542856'
p1438
sg5
(lp1439
S'Route11'
p1440
asg21
S'-80.265335'
p1441
sg23
S'EDINBURGH RD N AT MERCER ST'
p1442
sba(i__main__
Stop
p1443
(dp1444
g3
S'43.545391'
p1445
sg5
(lp1446
S'Route11'
p1447
aS'Route20'
p1448
asg21
S'-80.271529'
p1449
sg23
S'WILLOW RD AT DAWSON RD'
p1450
sba(i__main__
Stop
p1451
(dp1452
g3
S'43.545826'
p1453
sg5
(lp1454
S'Route11'
p1455
asg21
S'-80.274188'
p1456
sg23
S'DAWSON RD AT SHELLDALE CRES'
p1457
sba(i__main__
Stop
p1458
(dp1459
g3
S'43.549314'
p1460
sg5
(lp1461
S'Route11'
p1462
asg21
S'-80.279025'
p1463
sg23
S'DAWSON RD AT DAWSON ROAD MEDICAL CLINIC'
p1464
sba(i__main__
Stop
p1465
(dp1466
g3
S'43.547790'
p1467
sg5
(lp1468
S'Route11'
p1469
asg21
S'-80.282995'
p1470
sg23
S'229 SPEEDVALE AVE W'
p1471
sba(i__main__
Stop
p1472
(dp1473
g3
S'43.545027'
p1474
sg5
(lp1475
S'Route11'
p1476
asg21
S'-80.286831'
p1477
sg23
S'SPEEDVALE AVE W AT SILVERCREEK PKWY N'
p1478
sba(i__main__
Stop
p1479
(dp1480
g3
S'43.542554'
p1481
sg5
(lp1482
S'Route11'
p1483
asg21
S'-80.290189'
p1484
sg23
S'361 SPEEDVALE AVE W'
p1485
sba(i__main__
Stop
p1486
(dp1487
g3
S'43.540700'
p1488
sg5
(lp1489
S'Route11'
p1490
asg21
S'-80.292026'
p1491
sg23
S'MARKSAM RD SOUTH OF SPEEDVALE AVE W'
p1492
sba(i__main__
Stop
p1493
(dp1494
g3
S'43.540369'
p1495
sg5
(lp1496
S'Route11'
p1497
asg21
S'-80.291578'
p1498
sg23
S'177 MARKSAM RD'
p1499
sba(i__main__
Stop
p1500
(dp1501
g3
S'43.537827'
p1502
sg5
(lp1503
S'Route11'
p1504
asg21
S'-80.288856'
p1505
sg23
S'145 MARKSAM RD'
p1506
sba(i__main__
Stop
p1507
(dp1508
g3
S'43.536977'
p1509
sg5
(lp1510
S'Route11'
p1511
asg21
S'-80.283222'
p1512
sg23
S'76 MARKSAM RD'
p1513
sba(i__main__
Stop
p1514
(dp1515
g3
S'43.540246'
p1516
sg5
(lp1517
S'Route11'
p1518
asg21
S'-80.278258'
p1519
sg23
S'WILLOW RD AT SILVERCREEK PKWY'
p1520
sba(i__main__
Stop
p1521
(dp1522
g3
S'43.542696'
p1523
sg5
(lp1524
S'Route11'
p1525
asg21
S'-80.274948'
p1526
sg23
S'158 WILLOW RD'
p1527
sba(i__main__
Stop
p1528
(dp1529
g3
S'43.543569'
p1530
sg5
(lp1531
S'Route11'
p1532
asg21
S'-80.273708'
p1533
sg23
S'66 WILLOW RD'
p1534
sba(i__main__
Stop
p1535
(dp1536
g3
S'43.545212'
p1537
sg5
(lp1538
S'Route11'
p1539
asg21
S'-80.271456'
p1540
sg23
S'26 WILLOW RD'
p1541
sba(i__main__
Stop
p1542
(dp1543
g3
S'43.542215'
p1544
sg5
(lp1545
S'Route11'
p1546
asg21
S'-80.264745'
p1547
sg23
S'200 EDINBURGH RD N'
p1548
sba(i__main__
Stop
p1549
(dp1550
g3
S'43.54513'
p1551
sg5
(lp1552
S'Route11'
p1553
asg21
S'-80.253188'
p1554
sg23
S'PAISLEY ST AT NORFOLK ST'
p1555
sba(i__main__
Stop
p1556
(dp1557
g3
S'43.54518'
p1558
sg5
(lp1559
S'Route14'
p1560
asg21
S'-80.24605'
p1561
sg23
S'GUELPH CENTRAL STATION'
p1562
sba(i__main__
Stop
p1563
(dp1564
g3
S'43.5479'
p1565
sg5
(lp1566
S'Route14'
p1567
asg21
S'-80.241684'
p1568
sg23
S'ELIZABETH ST AT DUKE ST'
p1569
sba(i__main__
Stop
p1570
(dp1571
g3
S'43.549022'
p1572
sg5
(lp1573
S'Route14'
p1574
asg21
S'-80.240144'
p1575
sg23
S'65 ELIZABETH ST'
p1576
sba(i__main__
Stop
p1577
(dp1578
g3
S'43.550865'
p1579
sg5
(lp1580
S'Route14'
p1581
asg21
S'-80.237719'
p1582
sg23
S'ELIZABETH ST AT MORRIS ST'
p1583
sba(i__main__
Stop
p1584
(dp1585
g3
S'43.552852'
p1586
sg5
(lp1587
S'Route14'
p1588
asg21
S'-80.235072'
p1589
sg23
S'ELIZABETH ST AT STEVENSON ST'
p1590
sba(i__main__
Stop
p1591
(dp1592
g3
S'43.555192'
p1593
sg5
(lp1594
S'Route14'
p1595
asg21
S'-80.229946'
p1596
sg23
S'ELIZABETH ST AT VICTORIA RD N'
p1597
sba(i__main__
Stop
p1598
(dp1599
g3
S'43.55779'
p1600
sg5
(lp1601
S'Route14'
p1602
asg21
S'-80.231868'
p1603
sg23
S'GRANGE RD AT VICTORIA RD N'
p1604
sba(i__main__
Stop
p1605
(dp1606
g3
S'43.559965'
p1607
sg5
(lp1608
S'Route14'
p1609
asg21
S'-80.22695'
p1610
sg23
S'GRANGE RD AT SCHRODER CRES'
p1611
sba(i__main__
Stop
p1612
(dp1613
g3
S'43.564124'
p1614
sg5
(lp1615
S'Route14'
p1616
asg21
S'-80.222922'
p1617
sg23
S'GRANGE RD AT BREESGARDEN LANE'
p1618
sba(i__main__
Stop
p1619
(dp1620
g3
S'43.567439'
p1621
sg5
(lp1622
S'Route14'
p1623
asg21
S'-80.222527'
p1624
sg23
S'GRANGE RD AT RALSTON DR'
p1625
sba(i__main__
Stop
p1626
(dp1627
g3
S'43.570595'
p1628
sg5
(lp1629
S'Route14'
p1630
asg21
S'-80.221717'
p1631
sg23
S'GRANGE RD AT KEN DANBY SCHOOL'
p1632
sba(i__main__
Stop
p1633
(dp1634
g3
S'43.573407'
p1635
sg5
(lp1636
S'Route14'
p1637
asg21
S'-80.217850'
p1638
sg23
S'WATSON PKWY N SOUTH OF GRANGE RD N'
p1639
sba(i__main__
Stop
p1640
(dp1641
g3
S'43.570527'
p1642
sg5
(lp1643
S'Route14'
p1644
asg21
S'-80.21377'
p1645
sg23
S'WATSON PKWY N AT FLEMING RD'
p1646
sba(i__main__
Stop
p1647
(dp1648
g3
S'43.566571'
p1649
sg5
(lp1650
S'Route14'
p1651
aS'Route3A'
p1652
asg21
S'-80.211793'
p1653
sg23
S'WATSON PKWY N AT LIBRARY'
p1654
sba(i__main__
Stop
p1655
(dp1656
g3
S'43.566464'
p1657
sg5
(lp1658
S'Route14'
p1659
asg21
S'-80.217997'
p1660
sg23
S'STARWOOD DR AT FLEMING RD'
p1661
sba(i__main__
Stop
p1662
(dp1663
g3
S'43.566748'
p1664
sg5
(lp1665
S'Route14'
p1666
asg21
S'-80.221188'
p1667
sg23
S'STARWOOD DR AT RALSTON DR'
p1668
sba(i__main__
Stop
p1669
(dp1670
g3
S'43.565688'
p1671
sg5
(lp1672
S'Route14'
p1673
asg21
S'-80.22304'
p1674
sg23
S'GRANGE RD AT SILURIAN DR'
p1675
sba(i__main__
Stop
p1676
(dp1677
g3
S'43.560584'
p1678
sg5
(lp1679
S'Route14'
p1680
asg21
S'-80.22639'
p1681
sg23
S'GRANGE RD AT AUDEN RD'
p1682
sba(i__main__
Stop
p1683
(dp1684
g3
S'43.559028'
p1685
sg5
(lp1686
S'Route14'
p1687
asg21
S'-80.228522'
p1688
sg23
S'GRANGE RD AT ST JAMES PARK'
p1689
sba(i__main__
Stop
p1690
(dp1691
g3
S'43.556903'
p1692
sg5
(lp1693
S'Route14'
p1694
asg21
S'-80.231'
p1695
sg23
S'VICTORIA RD N AT GRANGE RD'
p1696
sba(i__main__
Stop
p1697
(dp1698
g3
S'43.555289'
p1699
sg5
(lp1700
S'Route14'
p1701
asg21
S'-80.230253'
p1702
sg23
S'ELIZABETH ST AT VICTORIA RD N'
p1703
sba(i__main__
Stop
p1704
(dp1705
g3
S'43.553328'
p1706
sg5
(lp1707
S'Route14'
p1708
asg21
S'-80.234705'
p1709
sg23
S'ELIZABETH ST AT STEVENSON ST'
p1710
sba(i__main__
Stop
p1711
(dp1712
g3
S'43.551418'
p1713
sg5
(lp1714
S'Route14'
p1715
asg21
S'-80.237208'
p1716
sg23
S'ELIZABETH ST AT MORRIS ST'
p1717
sba(i__main__
Stop
p1718
(dp1719
g3
S'43.549593'
p1720
sg5
(lp1721
S'Route14'
p1722
asg21
S'-80.239644'
p1723
sg23
S'ELIZABETH ST AT HURON ST'
p1724
sba(i__main__
Stop
p1725
(dp1726
g3
S'43.548577'
p1727
sg5
(lp1728
S'Route14'
p1729
asg21
S'-80.240986'
p1730
sg23
S'ELIZABETH ST AT RED CHEVRON CLUB'
p1731
sba(i__main__
Stop
p1732
(dp1733
g3
S'43.542723'
p1734
sg5
(lp1735
S'Route20'
p1736
asg21
S'-80.275201'
p1737
sg23
S'WILLOW RD AT WILLOW ROAD PS'
p1738
sba(i__main__
Stop
p1739
(dp1740
g3
S'43.539628'
p1741
sg5
(lp1742
S'Route20'
p1743
asg21
S'-80.279519'
p1744
sg23
S'WILLOW WEST MALL'
p1745
sba(i__main__
Stop
p1746
(dp1747
g3
S'43.535078'
p1748
sg5
(lp1749
S'Route20'
p1750
asg21
S'-80.285726'
p1751
sg23
S'WILLOW RD AT WESTWOOD PUBLIC SCHOOL'
p1752
sba(i__main__
Stop
p1753
(dp1754
g3
S'43.52762272'
p1755
sg5
(lp1756
S'Route20'
p1757
asg21
S'-80.29656172'
p1758
sg23
S'WILLOW RD AT FLAHERTY DR'
p1759
sba(i__main__
Stop
p1760
(dp1761
g3
S'43.530528'
p1762
sg5
(lp1763
S'Route20'
p1764
asg21
S'-80.303578'
p1765
sg23
S'ELMIRA RD N AT FLAHERTY DR'
p1766
sba(i__main__
Stop
p1767
(dp1768
g3
S'43.53318'
p1769
sg5
(lp1770
S'Route20'
p1771
asg21
S'-80.307097'
p1772
sg23
S'ELMIRA RD N AT INDEPENDENCE PL'
p1773
sba(i__main__
Stop
p1774
(dp1775
g3
S'43.54074'
p1776
sg5
(lp1777
S'Route20'
p1778
asg21
S'-80.301904'
p1779
sg23
S'ELMIRA RD AT MASSEY RD'
p1780
sba(i__main__
Stop
p1781
(dp1782
g3
S'43.535001'
p1783
sg5
(lp1784
S'Route20'
p1785
asg21
S'-80.3092'
p1786
sg23
S'ELMIRA RD AT POWER CORP'
p1787
sba(i__main__
Stop
p1788
(dp1789
g3
S'43.535607'
p1790
sg5
(lp1791
S'Route20'
p1792
asg21
S'-80.318127'
p1793
sg23
S'925 WOODLAWN RD'
p1794
sba(i__main__
Stop
p1795
(dp1796
g3
S'43.533243'
p1797
sg5
(lp1798
S'Route20'
p1799
asg21
S'-80.321935'
p1800
sg23
S'ACROSS FROM 498 GOVERNORS RD'
p1801
sba(i__main__
Stop
p1802
(dp1803
g3
S'43.536058'
p1804
sg5
(lp1805
S'Route20'
p1806
asg21
S'-80.322418'
p1807
sg23
S'110 MALCOLM RD'
p1808
sba(i__main__
Stop
p1809
(dp1810
g3
S'43.537101'
p1811
sg5
(lp1812
S'Route20'
p1813
asg21
S'-80.320916'
p1814
sg23
S'50 MALCOLM RD'
p1815
sba(i__main__
Stop
p1816
(dp1817
g3
S'43.538407'
p1818
sg5
(lp1819
S'Route20'
p1820
asg21
S'-80.319285'
p1821
sg23
S'14 MALCOLM RD'
p1822
sba(i__main__
Stop
p1823
(dp1824
g3
S'43.539932'
p1825
sg5
(lp1826
S'Route20'
p1827
asg21
S'-80.316989'
p1828
sg23
S'2 MALCOLM RD'
p1829
sba(i__main__
Stop
p1830
(dp1831
g3
S'43.533818'
p1832
sg5
(lp1833
S'Route20'
p1834
asg21
S'-80.31935'
p1835
sg23
S'450 MICHENER RD'
p1836
sba(i__main__
Stop
p1837
(dp1838
g3
S'43.531143'
p1839
sg5
(lp1840
S'Route20'
p1841
asg21
S'-80.315595'
p1842
sg23
S'MICHENER RD AT MASSEY RD'
p1843
sba(i__main__
Stop
p1844
(dp1845
g3
S'43.532232'
p1846
sg5
(lp1847
S'Route20'
p1848
asg21
S'-80.31347'
p1849
sg23
S'530 MASSEY RD'
p1850
sba(i__main__
Stop
p1851
(dp1852
g3
S'43.534705'
p1853
sg5
(lp1854
S'Route20'
p1855
asg21
S'-80.30978'
p1856
sg23
S'446 MASSEY RD'
p1857
sba(i__main__
Stop
p1858
(dp1859
g3
S'43.536167'
p1860
sg5
(lp1861
S'Route20'
p1862
asg21
S'-80.307763'
p1863
sg23
S'400 MASSEY RD'
p1864
sba(i__main__
Stop
p1865
(dp1866
g3
S'43.539372'
p1867
sg5
(lp1868
S'Route20'
p1869
asg21
S'-80.30302'
p1870
sg23
S'265 MASSEY RD'
p1871
sba(i__main__
Stop
p1872
(dp1873
g3
S'43.540367'
p1874
sg5
(lp1875
S'Route20'
p1876
asg21
S'-80.301948'
p1877
sg23
S'ACROSS FROM 251 MASSEY RD'
p1878
sba(i__main__
Stop
p1879
(dp1880
g3
S'43.543773'
p1881
sg5
(lp1882
S'Route20'
p1883
asg21
S'-80.305638'
p1884
sg23
S'IMPERIAL RD N OF WOODLAWN RD W'
p1885
sba(i__main__
Stop
p1886
(dp1887
g3
S'43.549077'
p1888
sg5
(lp1889
S'Route20'
p1890
asg21
S'-80.306239'
p1891
sg23
S'190 CURTIS DR'
p1892
sba(i__main__
Stop
p1893
(dp1894
g3
S'43.553665'
p1895
sg5
(lp1896
S'Route20'
p1897
asg21
S'-80.299931'
p1898
sg23
S'CURTIS DR AT SILVERCREEK PKWY'
p1899
sba(i__main__
Stop
p1900
(dp1901
g3
S'43.550834'
p1902
sg5
(lp1903
S'Route20'
p1904
asg21
S'-80.295854'
p1905
sg23
S'SILVERCREEK PKWY PAST WOODLAWN RD'
p1906
sba(i__main__
Stop
p1907
(dp1908
g3
S'43.548019'
p1909
sg5
(lp1910
S'Route20'
p1911
asg21
S'-80.29197'
p1912
sg23
S'SILVERCREEK PKWY N AT CAMPBELL RD'
p1913
sba(i__main__
Stop
p1914
(dp1915
g3
S'43.544924'
p1916
sg5
(lp1917
S'Route20'
p1918
asg21
S'-80.287571'
p1919
sg23
S'254 SILVERCREEK PKWY'
p1920
sba(i__main__
Stop
p1921
(dp1922
g3
S'43.542607'
p1923
sg5
(lp1924
S'Route20'
p1925
asg21
S'-80.28452'
p1926
sg23
S'214 SILVERCREEK PKWY'
p1927
sba(i__main__
Stop
p1928
(dp1929
g3
S'43.540196'
p1930
sg5
(lp1931
S'Route20'
p1932
asg21
S'-80.281091'
p1933
sg23
S'130 SILVERCREEK PWKY'
p1934
sba(i__main__
Stop
p1935
(dp1936
g3
S'43.543695'
p1937
sg5
(lp1938
S'Route20'
p1939
asg21
S'-80.273666'
p1940
sg23
S'WILLOW RD AT SILVERCREEK PKWY'
p1941
sba(i__main__
Stop
p1942
(dp1943
g3
S'43.54228'
p1944
sg5
(lp1945
S'Route20'
p1946
asg21
S'-80.275168'
p1947
sg23
S'158 WILLOW RD'
p1948
sba(i__main__
Stop
p1949
(dp1950
g3
S'43.54497'
p1951
sg5
(lp1952
S'Route20'
p1953
asg21
S'-80.271821'
p1954
sg23
S'66 WILLOW RD'
p1955
sba(i__main__
Stop
p1956
(dp1957
g3
S'43.542186'
p1958
sg5
(lp1959
S'Route20'
p1960
asg21
S'-80.264568'
p1961
sg23
S'200 EDINBURGH RD N'
p1962
sba(i__main__
Stop
p1963
(dp1964
g3
S'43.542622'
p1965
sg5
(lp1966
S'Route20'
p1967
asg21
S'-80.258259'
p1968
sg23
S'PAISLEY ST AT YORKSHIRE ST N'
p1969
sba(i__main__
Stop
p1970
(dp1971
g3
S'43.543326'
p1972
sg5
(lp1973
S'Route20'
p1974
asg21
S'-80.256844'
p1975
sg23
S'PAISLEY ST AT GLASGOW ST'
p1976
sba(i__main__
Stop
p1977
(dp1978
g3
S'43.545390'
p1979
sg5
(lp1980
S'Route20'
p1981
asg21
S'-80.252122'
p1982
sg23
S'PAISLEY ST AT NORFOLK ST'
p1983
sba(i__main__
Stop
p1984
(dp1985
g3
S'43.545180'
p1986
sg5
(lp1987
S'Route21'
p1988
asg21
S'-80.24605'
p1989
sg23
S'GUELPH CENTRAL STATION'
p1990
sba(i__main__
Stop
p1991
(dp1992
g3
S'43.542276'
p1993
sg5
(lp1994
S'Route21'
p1995
aS'Route8'
p1996
aS'Route16'
p1997
asg21
S'-80.243974'
p1998
sg23
S'WELLINGTON ST W AT KFC'
p1999
sba(i__main__
Stop
p2000
(dp2001
g3
S'43.527351'
p2002
sg5
(lp2003
S'Route21'
p2004
aS'Route1A'
p2005
aS'Route6'
p2006
aS'Route7'
p2007
aS'Route5'
p2008
aS'Route16'
p2009
aS'Route Gordon Corridor'
p2010
asg21
S'-80.226173'
p2011
sg23
S'GORDON ST AT STONE RD W'
p2012
sba(i__main__
Stop
p2013
(dp2014
g3
S'43.525153'
p2015
sg5
(lp2016
S'Route21'
p2017
asg21
S'-80.221052'
p2018
sg23
S'GORDON ST AT HARVARD RD'
p2019
sba(i__main__
Stop
p2020
(dp2021
g3
S'43.522309'
p2022
sg5
(lp2023
S'Route21'
p2024
aS'Route1A'
p2025
aS'Route7'
p2026
aS'Route5'
p2027
aS'Route16'
p2028
aS'Route Gordon Corridor'
p2029
asg21
S'-80.213484'
p2030
sg23
S'GORDON ST AT KORTRIGHT RD W'
p2031
sba(i__main__
Stop
p2032
(dp2033
g3
S'43.516595'
p2034
sg5
(lp2035
S'Route21'
p2036
aS'Route1A'
p2037
aS'Route5'
p2038
aS'Route16'
p2039
aS'Route Gordon Corridor'
p2040
asg21
S'-80.203694'
p2041
sg23
S'GORDON ST AT EDINBURGH RD S'
p2042
sba(i__main__
Stop
p2043
(dp2044
g3
S'43.513888'
p2045
sg5
(lp2046
S'Route21'
p2047
aS'Route16'
p2048
aS'Route Gordon Corridor'
p2049
asg21
S'-80.19989'
p2050
sg23
S'GORDON ST AT ARKELL RD'
p2051
sba(i__main__
Stop
p2052
(dp2053
g3
S'43.505161'
p2054
sg5
(lp2055
S'Route21'
p2056
aS'Route16'
p2057
aS'Route Gordon Corridor'
p2058
asg21
S'-80.194351'
p2059
sg23
S'GORDON ST AT CLAIRFIELDS DR'
p2060
sba(i__main__
Stop
p2061
(dp2062
g3
S'43.495554'
p2063
sg5
(lp2064
S'Route21'
p2065
asg21
S'-80.195861'
p2066
sg23
S'BISHOP MACDONELL HIGH SCHOOL'
p2067
sba(i__main__
Stop
p2068
(dp2069
g3
S'43.492751'
p2070
sg5
(lp2071
S'Route21'
p2072
aS'Route16'
p2073
asg21
S'-80.200238'
p2074
sg23
S'LAIRD RD AT CLAIR RD W'
p2075
sba(i__main__
Stop
p2076
(dp2077
g3
S'43.49437'
p2078
sg5
(lp2079
S'Route21'
p2080
aS'Route16'
p2081
asg21
S'-80.207405'
p2082
sg23
S'SOUTHGATE DR AT LAIRD RD'
p2083
sba(i__main__
Stop
p2084
(dp2085
g3
S'43.497763'
p2086
sg5
(lp2087
S'Route21'
p2088
aS'Route16'
p2089
asg21
S'-80.211439'
p2090
sg23
S'125 SOUTHGATE DR'
p2091
sba(i__main__
Stop
p2092
(dp2093
g3
S'43.500192'
p2094
sg5
(lp2095
S'Route21'
p2096
aS'Route16'
p2097
asg21
S'-80.213584'
p2098
sg23
S'180 SOUTHGATE DR'
p2099
sba(i__main__
Stop
p2100
(dp2101
g3
S'43.502246'
p2102
sg5
(lp2103
S'Route21'
p2104
aS'Route16'
p2105
asg21
S'-80.217576'
p2106
sg23
S'310 SOUTHGATE DR'
p2107
sba(i__main__
Stop
p2108
(dp2109
g3
S'43.500098'
p2110
sg5
(lp2111
S'Route21'
p2112
aS'Route16'
p2113
asg21
S'-80.219979'
p2114
sg23
S'450 SOUTHGATE DR'
p2115
sba(i__main__
Stop
p2116
(dp2117
g3
S'43.497763'
p2118
sg5
(lp2119
S'Route21'
p2120
aS'Route16'
p2121
asg21
S'-80.21749'
p2122
sg23
S'525 SOUTHGATE DR'
p2123
sba(i__main__
Stop
p2124
(dp2125
g3
S'43.494526'
p2126
sg5
(lp2127
S'Route21'
p2128
aS'Route16'
p2129
asg21
S'-80.213713'
p2130
sg23
S'595 SOUTHGATE DR'
p2131
sba(i__main__
Stop
p2132
(dp2133
g3
S'43.49297'
p2134
sg5
(lp2135
S'Route21'
p2136
aS'Route16'
p2137
asg21
S'-80.209943'
p2138
sg23
S'679 SOUTHGATE DR'
p2139
sba(i__main__
Stop
p2140
(dp2141
g3
S'43.492192'
p2142
sg5
(lp2143
S'Route21'
p2144
aS'Route16'
p2145
asg21
S'-80.208765'
p2146
sg23
S'SOUTHGATE DR AT CORPORATE RD'
p2147
sba(i__main__
Stop
p2148
(dp2149
g3
S'43.491034'
p2150
sg5
(lp2151
S'Route21'
p2152
aS'Route16'
p2153
asg21
S'-80.207102'
p2154
sg23
S'SOUTHGATE DR AT ADMIRAL PL'
p2155
sba(i__main__
Stop
p2156
(dp2157
g3
S'43.489566'
p2158
sg5
(lp2159
S'Route21'
p2160
aS'Route16'
p2161
asg21
S'-80.203991'
p2162
sg23
S'829 SOUTHGATE DR'
p2163
sba(i__main__
Stop
p2164
(dp2165
g3
S'43.492158'
p2166
sg5
(lp2167
S'Route21'
p2168
aS'Route16'
p2169
asg21
S'-80.200168'
p2170
sg23
S'300 CLAIR (WATER TOWER)'
p2171
sba(i__main__
Stop
p2172
(dp2173
g3
S'43.495285'
p2174
sg5
(lp2175
S'Route21'
p2176
aS'Route16'
p2177
asg21
S'-80.195641'
p2178
sg23
S'BISHOP MACDONELL HIGH SCHOOL'
p2179
sba(i__main__
Stop
p2180
(dp2181
g3
S'43.499368'
p2182
sg5
(lp2183
S'Route21'
p2184
asg21
S'-80.191593'
p2185
sg23
S'GOSLING GDNS AT FOOD BASICS'
p2186
sba(i__main__
Stop
p2187
(dp2188
g3
S'43.501366'
p2189
sg5
(lp2190
S'Route21'
p2191
asg21
S'-80.192967'
p2192
sg23
S'GOSLING GDNS PARK'
p2193
sba(i__main__
Stop
p2194
(dp2195
g3
S'43.503521'
p2196
sg5
(lp2197
S'Route21'
p2198
asg21
S'-80.192967'
p2199
sg23
S'GOSLING GDNS AT CLAIRFIELDS DR W'
p2200
sba(i__main__
Stop
p2201
(dp2202
g3
S'43.505801'
p2203
sg5
(lp2204
S'Route21'
p2205
asg21
S'-80.194376'
p2206
sg23
S'GORDON ST NORTH OF CLAIRFIELDS DR'
p2207
sba(i__main__
Stop
p2208
(dp2209
g3
S'43.508565'
p2210
sg5
(lp2211
S'Route21'
p2212
asg21
S'-80.195517'
p2213
sg23
S'GORDON ST AT LOWES RD'
p2214
sba(i__main__
Stop
p2215
(dp2216
g3
S'43.511755'
p2217
sg5
(lp2218
S'Route21'
p2219
asg21
S'-80.196955'
p2220
sg23
S'GORDON ST AT CONTINUING EDUC'
p2221
sba(i__main__
Stop
p2222
(dp2223
g3
S'43.513988'
p2224
sg5
(lp2225
S'Route21'
p2226
asg21
S'-80.199607'
p2227
sg23
S'GORDON ST AT ARKELL RD'
p2228
sba(i__main__
Stop
p2229
(dp2230
g3
S'43.516628'
p2231
sg5
(lp2232
S'Route21'
p2233
asg21
S'-80.203268'
p2234
sg23
S'GORDON ST AT VALLEY RD'
p2235
sba(i__main__
Stop
p2236
(dp2237
g3
S'43.5185'
p2238
sg5
(lp2239
S'Route21'
p2240
asg21
S'-80.205684'
p2241
sg23
S'GORDON ST AT LANDSDOWN DR'
p2242
sba(i__main__
Stop
p2243
(dp2244
g3
S'43.519667'
p2245
sg5
(lp2246
S'Route21'
p2247
asg21
S'-80.207481'
p2248
sg23
S'GORDON ST AT HARTS LANE'
p2249
sba(i__main__
Stop
p2250
(dp2251
g3
S'43.520911'
p2252
sg5
(lp2253
S'Route21'
p2254
asg21
S'-80.209892'
p2255
sg23
S'1030 GORDON ST'
p2256
sba(i__main__
Stop
p2257
(dp2258
g3
S'43.522721'
p2259
sg5
(lp2260
S'Route21'
p2261
aS'Route1B'
p2262
aS'Route7'
p2263
aS'Route5'
p2264
aS'Route56'
p2265
aS'Route58'
p2266
aS'Route16'
p2267
aS'Route Gordon Corridor'
p2268
asg21
S'-80.213719'
p2269
sg23
S'GORDON ST AT KORTRIGHT RD W'
p2270
sba(i__main__
Stop
p2271
(dp2272
g3
S'43.524266'
p2273
sg5
(lp2274
S'Route21'
p2275
aS'Route1B'
p2276
aS'Route7'
p2277
aS'Route5'
p2278
aS'Route56'
p2279
aS'Route58'
p2280
aS'Route16'
p2281
aS'Route Gordon Corridor'
p2282
asg21
S'-80.216865'
p2283
sg23
S'GORDON ST AT HANDS DR'
p2284
sba(i__main__
Stop
p2285
(dp2286
g3
S'43.525832'
p2287
sg5
(lp2288
S'Route21'
p2289
aS'Route1B'
p2290
aS'Route6'
p2291
aS'Route7'
p2292
aS'Route5'
p2293
aS'Route56'
p2294
aS'Route58'
p2295
aS'Route16'
p2296
aS'Route Gordon Corridor'
p2297
asg21
S'-80.221814'
p2298
sg23
S'GORDON ST AT MONTICELLO CRES'
p2299
sba(i__main__
Stop
p2300
(dp2301
g3
S'43.527039'
p2302
sg5
(lp2303
S'Route21'
p2304
aS'Route5'
p2305
asg21
S'-80.224506'
p2306
sg23
S'UNIVERSITY CENTRE'
p2307
sba(i__main__
Stop
p2308
(dp2309
g3
S'43.530994'
p2310
sg5
(lp2311
S'Route21'
p2312
asg21
S'-80.230666'
p2313
sg23
S'GORDON ST AT VET COLLEGE'
p2314
sba(i__main__
Stop
p2315
(dp2316
g3
S'43.532866'
p2317
sg5
(lp2318
S'Route21'
p2319
asg21
S'-80.233225'
p2320
sg23
S'GORDON ST AT MACDONALD STEWART ART CENTRE'
p2321
sba(i__main__
Stop
p2322
(dp2323
g3
S'43.536989'
p2324
sg5
(lp2325
S'Route21'
p2326
asg21
S'-80.239157'
p2327
sg23
S'GORDON ST AT DORMIE LANE'
p2328
sba(i__main__
Stop
p2329
(dp2330
g3
S'43.538176'
p2331
sg5
(lp2332
S'Route21'
p2333
asg21
S'-80.240871'
p2334
sg23
S'GORDON ST AT WATER ST'
p2335
sba(i__main__
Stop
p2336
(dp2337
g3
S'43.541072'
p2338
sg5
(lp2339
S'Route21'
p2340
asg21
S'-80.245144'
p2341
sg23
S'GORDON ST AT WELLINGTON ST W'
p2342
sba(i__main__
Stop
p2343
(dp2344
g3
S'43.541909'
p2345
sg5
(lp2346
S'Route21'
p2347
asg21
S'-80.247552'
p2348
sg23
S"GORDON AT HARVEY'S"
p2349
sba(i__main__
Stop
p2350
(dp2351
g3
S'43.546261'
p2352
sg5
(lp2353
S'Route21'
p2354
asg21
S'-80.249248'
p2355
sg23
S'GUELPH CENTRAL STATION'
p2356
sba(i__main__
Stop
p2357
(dp2358
g3
S'43.529524'
p2359
sg5
(lp2360
S'Route1A'
p2361
aS'Route1B'
p2362
aS'Route5'
p2363
aS'Route56'
p2364
aS'Route58'
p2365
aS'Route50'
p2366
aS'Route Gordon Corridor'
p2367
asg21
S'-80.224506'
p2368
sg23
S'UNIVERSITY CENTRE'
p2369
sba(i__main__
Stop
p2370
(dp2371
g3
S'43.525457'
p2372
sg5
(lp2373
S'Route1A'
p2374
aS'Route6'
p2375
aS'Route7'
p2376
aS'Route5'
p2377
aS'Route16'
p2378
aS'Route Gordon Corridor'
p2379
asg21
S'-80.221185'
p2380
sg23
S'GORDON ST AT HARVARD RD'
p2381
sba(i__main__
Stop
p2382
(dp2383
g3
S'43.519571'
p2384
sg5
(lp2385
S'Route1A'
p2386
aS'Route5'
p2387
aS'Route16'
p2388
aS'Route Gordon Corridor'
p2389
asg21
S'-80.207956'
p2390
sg23
S'GORDON ST AT HARTS LANE'
p2391
sba(i__main__
Stop
p2392
(dp2393
g3
S'43.518045'
p2394
sg5
(lp2395
S'Route1A'
p2396
aS'Route5'
p2397
aS'Route16'
p2398
aS'Route Gordon Corridor'
p2399
asg21
S'-80.205824'
p2400
sg23
S'1155 GORDON ST'
p2401
sba(i__main__
Stop
p2402
(dp2403
g3
S'43.513692'
p2404
sg5
(lp2405
S'Route1A'
p2406
asg21
S'-80.206781'
p2407
sg23
S'EDINBURGH RD S AT CARRINGTON DR'
p2408
sba(i__main__
Stop
p2409
(dp2410
g3
S'43.511637'
p2411
sg5
(lp2412
S'Route1A'
p2413
asg21
S'-80.209561'
p2414
sg23
S'EDINBURGH RD S AT RICKSON AVE'
p2415
sba(i__main__
Stop
p2416
(dp2417
g3
S'43.511074'
p2418
sg5
(lp2419
S'Route1A'
p2420
asg21
S'-80.213783'
p2421
sg23
S'EDINBURGH RD S AT GINGER CRT'
p2422
sba(i__main__
Stop
p2423
(dp2424
g3
S'43.512621'
p2425
sg5
(lp2426
S'Route1A'
p2427
asg21
S'-80.218822'
p2428
sg23
S'EDINBURGH RD S AT ROGERS RD'
p2429
sba(i__main__
Stop
p2430
(dp2431
g3
S'43.516156'
p2432
sg5
(lp2433
S'Route1A'
p2434
asg21
S'-80.226104'
p2435
sg23
S'EDINBURGH RD S AT KOCH DR'
p2436
sba(i__main__
Stop
p2437
(dp2438
g3
S'43.517591'
p2439
sg5
(lp2440
S'Route1A'
p2441
asg21
S'-80.230666'
p2442
sg23
S'EDINBURGH RD S AT LAURELWOOD CRT'
p2443
sba(i__main__
Stop
p2444
(dp2445
g3
S'43.517495'
p2446
sg5
(lp2447
S'Route1A'
p2448
aS'Route6'
p2449
asg21
S'-80.237179'
p2450
sg23
S'STONE RD W AT STONE ROAD MALL'
p2451
sba(i__main__
Stop
p2452
(dp2453
g3
S'43.515864'
p2454
sg5
(lp2455
S'Route1A'
p2456
asg21
S'-80.239383'
p2457
sg23
S'STONE RD W AT SCOTTSDALE DR'
p2458
sba(i__main__
Stop
p2459
(dp2460
g3
S'43.517581'
p2461
sg5
(lp2462
S'Route1A'
p2463
asg21
S'-80.244796'
p2464
sg23
S'181 JANEFIELD AVE'
p2465
sba(i__main__
Stop
p2466
(dp2467
g3
S'43.519079'
p2468
sg5
(lp2469
S'Route1A'
p2470
asg21
S'-80.246963'
p2471
sg23
S'53 JANEFIELD AVE'
p2472
sba(i__main__
Stop
p2473
(dp2474
g3
S'43.521975'
p2475
sg5
(lp2476
S'Route1A'
p2477
asg21
S'-80.246085'
p2478
sg23
S'264 COLLEGE AVE W'
p2479
sba(i__main__
Stop
p2480
(dp2481
g3
S'43.524248'
p2482
sg5
(lp2483
S'Route1A'
p2484
asg21
S'-80.243014'
p2485
sg23
S'COLLEGE AVE W AT MEADOWCROFT'
p2486
sba(i__main__
Stop
p2487
(dp2488
g3
S'43.529648'
p2489
sg5
(lp2490
S'Route1A'
p2491
asg21
S'-80.235787'
p2492
sg23
S'50 COLLEGE AVE W'
p2493
sba(i__main__
Stop
p2494
(dp2495
g3
S'43.533525'
p2496
sg5
(lp2497
S'Route1A'
p2498
asg21
S'-80.230400'
p2499
sg23
S'COLLEGE AVE E AT MACDONALD ST'
p2500
sba(i__main__
Stop
p2501
(dp2502
g3
S'43.535121'
p2503
sg5
(lp2504
S'Route1A'
p2505
asg21
S'-80.224988'
p2506
sg23
S'EAST RING RD AT DUNDAS LANE'
p2507
sba(i__main__
Stop
p2508
(dp2509
g3
S'43.533228'
p2510
sg5
(lp2511
S'Route1A'
p2512
asg21
S'-80.222342'
p2513
sg23
S'EAST RING RD AT ARBORETUM RD'
p2514
sba(i__main__
Stop
p2515
(dp2516
g3
S'43.533414'
p2517
sg5
(lp2518
S'Route1B'
p2519
asg21
S'-80.222235'
p2520
sg23
S'EAST RING RD AT ARBORETUM RD'
p2521
sba(i__main__
Stop
p2522
(dp2523
g3
S'43.535071'
p2524
sg5
(lp2525
S'Route1B'
p2526
asg21
S'-80.224477'
p2527
sg23
S'EAST RING RD AT DUNDAS LANE'
p2528
sba(i__main__
Stop
p2529
(dp2530
g3
S'43.534115'
p2531
sg5
(lp2532
S'Route1B'
p2533
asg21
S'-80.229942'
p2534
sg23
S'COLLEGE AVE E AT MACDONALD ST'
p2535
sba(i__main__
Stop
p2536
(dp2537
g3
S'43.529727'
p2538
sg5
(lp2539
S'Route1B'
p2540
asg21
S'-80.235897'
p2541
sg23
S'COLLEGE AVE W AT CALEDONIA ST'
p2542
sba(i__main__
Stop
p2543
(dp2544
g3
S'43.525349'
p2545
sg5
(lp2546
S'Route1B'
p2547
asg21
S'-80.241837'
p2548
sg23
S'COLLEGE AVE W AT EDINBURGH RD'
p2549
sba(i__main__
Stop
p2550
(dp2551
g3
S'43.521571'
p2552
sg5
(lp2553
S'Route1B'
p2554
asg21
S'-80.247137'
p2555
sg23
S'COLLEGE AVE W AT CENTENNIAL'
p2556
sba(i__main__
Stop
p2557
(dp2558
g3
S'43.517868'
p2559
sg5
(lp2560
S'Route1B'
p2561
asg21
S'-80.245637'
p2562
sg23
S'129 JANEFIELD AVE'
p2563
sba(i__main__
Stop
p2564
(dp2565
g3
S'43.516872'
p2566
sg5
(lp2567
S'Route1B'
p2568
asg21
S'-80.240944'
p2569
sg23
S'JANEFIELD AVE AT SCOTTSDALE DR'
p2570
sba(i__main__
Stop
p2571
(dp2572
g3
S'43.516543'
p2573
sg5
(lp2574
S'Route1B'
p2575
aS'Route58'
p2576
asg21
S'-80.229338'
p2577
sg23
S'583 EDINBURGH RD S'
p2578
sba(i__main__
Stop
p2579
(dp2580
g3
S'43.515674'
p2581
sg5
(lp2582
S'Route1B'
p2583
aS'Route58'
p2584
asg21
S'-80.223705'
p2585
sg23
S'685 EDINBURGH RD S'
p2586
sba(i__main__
Stop
p2587
(dp2588
g3
S'43.512606'
p2589
sg5
(lp2590
S'Route1B'
p2591
asg21
S'-80.218928'
p2592
sg23
S'777 EDINBURGH RD S'
p2593
sba(i__main__
Stop
p2594
(dp2595
g3
S'43.510979'
p2596
sg5
(lp2597
S'Route1B'
p2598
asg21
S'-80.213604'
p2599
sg23
S'EDINBURGH  RD S AT GINGER CRT'
p2600
sba(i__main__
Stop
p2601
(dp2602
g3
S'43.511550'
p2603
sg5
(lp2604
S'Route1B'
p2605
asg21
S'-80.209314'
p2606
sg23
S'EDINBURGH RD S AT RICKSON AVE'
p2607
sba(i__main__
Stop
p2608
(dp2609
g3
S'43.513666'
p2610
sg5
(lp2611
S'Route1B'
p2612
asg21
S'-80.206367'
p2613
sg23
S'EDINBURGH RD S AT CARRINGTON DR'
p2614
sba(i__main__
Stop
p2615
(dp2616
g3
S'43.516653'
p2617
sg5
(lp2618
S'Route1B'
p2619
aS'Route5'
p2620
aS'Route56'
p2621
aS'Route16'
p2622
aS'Route Gordon Corridor'
p2623
asg21
S'-80.203242'
p2624
sg23
S'GORDON ST AT VALLEY RD'
p2625
sba(i__main__
Stop
p2626
(dp2627
g3
S'43.518854'
p2628
sg5
(lp2629
S'Route1B'
p2630
aS'Route5'
p2631
aS'Route56'
p2632
aS'Route16'
p2633
aS'Route Gordon Corridor'
p2634
asg21
S'-80.205813'
p2635
sg23
S'GORDON ST AT LANDSDOWN DR'
p2636
sba(i__main__
Stop
p2637
(dp2638
g3
S'43.519609'
p2639
sg5
(lp2640
S'Route1B'
p2641
aS'Route5'
p2642
aS'Route56'
p2643
aS'Route16'
p2644
aS'Route Gordon Corridor'
p2645
asg21
S'-80.207455'
p2646
sg23
S'GORDON ST AT HARTS LANE'
p2647
sba(i__main__
Stop
p2648
(dp2649
g3
S'43.520895'
p2650
sg5
(lp2651
S'Route1B'
p2652
aS'Route5'
p2653
aS'Route56'
p2654
aS'Route16'
p2655
aS'Route Gordon Corridor'
p2656
asg21
S'-80.210036'
p2657
sg23
S'941 GORDON ST'
p2658
sba(i__main__
Stop
p2659
(dp2660
g3
S'43.527039'
p2661
sg5
(lp2662
S'Route1B'
p2663
aS'Route6'
p2664
aS'Route7'
p2665
asg21
S'-80.225188'
p2666
sg23
S'GORDON ST AT STONE RD W'
p2667
sba(i__main__
Stop
p2668
(dp2669
g3
S'43.549049'
p2670
sg5
(lp2671
S'Route12'
p2672
aS'Route13'
p2673
asg21
S'-80.250385'
p2674
sg23
S'ERAMOSA RD BRIDGE'
p2675
sba(i__main__
Stop
p2676
(dp2677
g3
S'43.553440'
p2678
sg5
(lp2679
S'Route12'
p2680
asg21
S'-80.250429'
p2681
sg23
S'DELHI ST AT ERAMOSA RD'
p2682
sba(i__main__
Stop
p2683
(dp2684
g3
S'43.555478'
p2685
sg5
(lp2686
S'Route12'
p2687
asg21
S'-80.253263'
p2688
sg23
S'DELHI ST AT GUELPH GENERAL HOSPITAL'
p2689
sba(i__main__
Stop
p2690
(dp2691
g3
S'43.558023'
p2692
sg5
(lp2693
S'Route12'
p2694
asg21
S'-80.256817'
p2695
sg23
S'DELHI ST AT HOMEWOOD HEALTH CENTRE'
p2696
sba(i__main__
Stop
p2697
(dp2698
g3
S'43.559730'
p2699
sg5
(lp2700
S'Route12'
p2701
asg21
S'-80.259149'
p2702
sg23
S'DELHI ST AT EMMA ST'
p2703
sba(i__main__
Stop
p2704
(dp2705
g3
S'43.561982'
p2706
sg5
(lp2707
S'Route12'
p2708
asg21
S'-80.256609'
p2709
sg23
S'EMMA ST AT METCALFE ST'
p2710
sba(i__main__
Stop
p2711
(dp2712
g3
S'43.563510'
p2713
sg5
(lp2714
S'Route12'
p2715
asg21
S'-80.254526'
p2716
sg23
S'EMMA ST AT STEVENSON ST'
p2717
sba(i__main__
Stop
p2718
(dp2719
g3
S'43.566155'
p2720
sg5
(lp2721
S'Route12'
p2722
asg21
S'-80.257454'
p2723
sg23
S'SPEEDVALE AVE E AT STEVENSON ST'
p2724
sba(i__main__
Stop
p2725
(dp2726
g3
S'43.568988'
p2727
sg5
(lp2728
S'Route12'
p2729
asg21
S'-80.253555'
p2730
sg23
S'SPEEDVALE AVE E AT RENFIELD ST'
p2731
sba(i__main__
Stop
p2732
(dp2733
g3
S'43.570197'
p2734
sg5
(lp2735
S'Route12'
p2736
asg21
S'-80.251898'
p2737
sg23
S'SPEEDVALE AVE E AT ACORN PL'
p2738
sba(i__main__
Stop
p2739
(dp2740
g3
S'43.577375'
p2741
sg5
(lp2742
S'Route12'
p2743
asg21
S'-80.260566'
p2744
sg23
S'WOODLAWN RD E AT VICTORIA RD N'
p2745
sba(i__main__
Stop
p2746
(dp2747
g3
S'43.572923'
p2748
sg5
(lp2749
S'Route12'
p2750
asg21
S'-80.260722'
p2751
sg23
S'WINDSOR ST AT KINGSLEY CRT'
p2752
sba(i__main__
Stop
p2753
(dp2754
g3
S'43.570030'
p2755
sg5
(lp2756
S'Route12'
p2757
asg21
S'-80.262589'
p2758
sg23
S'WAVERLY DR AT STEVENSON ST'
p2759
sba(i__main__
Stop
p2760
(dp2761
g3
S'43.568068'
p2762
sg5
(lp2763
S'Route12'
p2764
asg21
S'-80.264664'
p2765
sg23
S'METCALFE ST AT WAVERLEY DR'
p2766
sba(i__main__
Stop
p2767
(dp2768
g3
S'43.565996'
p2769
sg5
(lp2770
S'Route12'
p2771
asg21
S'-80.261803'
p2772
sg23
S'METCALFE ST AT SHAFTESBURY AVE'
p2773
sba(i__main__
Stop
p2774
(dp2775
g3
S'43.564553'
p2776
sg5
(lp2777
S'Route12'
p2778
asg21
S'-80.260110'
p2779
sg23
S'METCALFE ST AT SPEEDVALE  AVE'
p2780
sba(i__main__
Stop
p2781
(dp2782
g3
S'43.563067'
p2783
sg5
(lp2784
S'Route12'
p2785
asg21
S'-80.261976'
p2786
sg23
S'SPEEDVALE AVE AT CLIVE AVE'
p2787
sba(i__main__
Stop
p2788
(dp2789
g3
S'43.561341'
p2790
sg5
(lp2791
S'Route12'
p2792
asg21
S'-80.261642'
p2793
sg23
S'DELHI ST AT PHILLIP AVE'
p2794
sba(i__main__
Stop
p2795
(dp2796
g3
S'43.559753'
p2797
sg5
(lp2798
S'Route12'
p2799
asg21
S'-80.259441'
p2800
sg23
S'DELHI ST AT EMMA ST'
p2801
sba(i__main__
Stop
p2802
(dp2803
g3
S'43.557461'
p2804
sg5
(lp2805
S'Route12'
p2806
asg21
S'-80.256245'
p2807
sg23
S'DELHI ST AT HOMEWOOD HEALTH CENTRE'
p2808
sba(i__main__
Stop
p2809
(dp2810
g3
S'43.555378'
p2811
sg5
(lp2812
S'Route12'
p2813
asg21
S'-80.253359'
p2814
sg23
S'DELHI ST AT SPRING ST'
p2815
sba(i__main__
Stop
p2816
(dp2817
g3
S'43.553174'
p2818
sg5
(lp2819
S'Route12'
p2820
asg21
S'-80.250307'
p2821
sg23
S'DELHI ST AT ERAMOSA RD'
p2822
sba(i__main__
Stop
p2823
(dp2824
g3
S'43.549165'
p2825
sg5
(lp2826
S'Route12'
p2827
aS'Route13'
p2828
asg21
S'-80.250571'
p2829
sg23
S'ERAMOSA RD AT ARTHUR ST'
p2830
sba(i__main__
Stop
p2831
(dp2832
g3
S'43.5290634619'
p2833
sg5
(lp2834
S'Route6'
p2835
asg21
S'-80.2238410411'
p2836
sg23
S'UNIVERSITY CENTRE'
p2837
sba(i__main__
Stop
p2838
(dp2839
g3
S'43.523990'
p2840
sg5
(lp2841
S'Route6'
p2842
asg21
S'-80.223439'
p2843
sg23
S'HARVARD RD AT SHAKESPEARE ARMS'
p2844
sba(i__main__
Stop
p2845
(dp2846
g3
S'43.520793'
p2847
sg5
(lp2848
S'Route6'
p2849
asg21
S'-80.228167'
p2850
sg23
S'HARVARD RD AT PRINCETON PL'
p2851
sba(i__main__
Stop
p2852
(dp2853
g3
S'43.518262'
p2854
sg5
(lp2855
S'Route6'
p2856
asg21
S'-80.228565'
p2857
sg23
S'HARVARD RD AT YOUNGMAN DR'
p2858
sba(i__main__
Stop
p2859
(dp2860
g3
S'43.517457'
p2861
sg5
(lp2862
S'Route6'
p2863
asg21
S'-80.230376'
p2864
sg23
S'EDINBURGH RD AT LAURELWOOD CRT'
p2865
sba(i__main__
Stop
p2866
(dp2867
g3
S'43.514716'
p2868
sg5
(lp2869
S'Route6'
p2870
asg21
S'-80.238481'
p2871
sg23
S'SCOTTSDALE DR AT STONE RD W'
p2872
sba(i__main__
Stop
p2873
(dp2874
g3
S'43.513792'
p2875
sg5
(lp2876
S'Route6'
p2877
asg21
S'-80.237204'
p2878
sg23
S'SCOTTSDALE DR AT COLE RD'
p2879
sba(i__main__
Stop
p2880
(dp2881
g3
S'43.512987'
p2882
sg5
(lp2883
S'Route6'
p2884
asg21
S'-80.235201'
p2885
sg23
S'SCOTTSDALE DR AT IRONWOOD RD'
p2886
sba(i__main__
Stop
p2887
(dp2888
g3
S'43.511151'
p2889
sg5
(lp2890
S'Route6'
p2891
asg21
S'-80.235094'
p2892
sg23
S'IRONWOOD RD AT STEFFLER PARK'
p2893
sba(i__main__
Stop
p2894
(dp2895
g3
S'43.508854'
p2896
sg5
(lp2897
S'Route6'
p2898
asg21
S'-80.232937'
p2899
sg23
S'IRONWOOD RD AT COLE RD'
p2900
sba(i__main__
Stop
p2901
(dp2902
g3
S'43.507108'
p2903
sg5
(lp2904
S'Route6'
p2905
asg21
S'-80.229901'
p2906
sg23
S'IRONWOOD RD AT WOODBOROUGH RD'
p2907
sba(i__main__
Stop
p2908
(dp2909
g3
S'43.505669'
p2910
sg5
(lp2911
S'Route6'
p2912
asg21
S'-80.227176'
p2913
sg23
S'IRONWOOD RD AT HILLDALE CRES'
p2914
sba(i__main__
Stop
p2915
(dp2916
g3
S'43.507460'
p2917
sg5
(lp2918
S'Route6'
p2919
asg21
S'-80.225619'
p2920
sg23
S'IRONWOOD RD AT BROOKHAVEN CRT'
p2921
sba(i__main__
Stop
p2922
(dp2923
g3
S'43.509886'
p2924
sg5
(lp2925
S'Route6'
p2926
asg21
S'-80.227975'
p2927
sg23
S'IRONWOOD RD AT KORTRIGHT RD'
p2928
sba(i__main__
Stop
p2929
(dp2930
g3
S'43.511745'
p2931
sg5
(lp2932
S'Route6'
p2933
asg21
S'-80.230319'
p2934
sg23
S'SCOTTSDALE DR AT STEFFLER DR'
p2935
sba(i__main__
Stop
p2936
(dp2937
g3
S'43.513799'
p2938
sg5
(lp2939
S'Route6'
p2940
asg21
S'-80.236892'
p2941
sg23
S'711 SCOTTSDALE DR'
p2942
sba(i__main__
Stop
p2943
(dp2944
g3
S'43.514732'
p2945
sg5
(lp2946
S'Route6'
p2947
asg21
S'-80.238189'
p2948
sg23
S'632 SCOTTSDALE DR'
p2949
sba(i__main__
Stop
p2950
(dp2951
g3
S'43.517933'
p2952
sg5
(lp2953
S'Route6'
p2954
asg21
S'-80.228173'
p2955
sg23
S'YOUNGMAN DR AT HARVARD RD'
p2956
sba(i__main__
Stop
p2957
(dp2958
g3
S'43.520745'
p2959
sg5
(lp2960
S'Route6'
p2961
asg21
S'-80.228014'
p2962
sg23
S'HARVARD RD AT PRINCETON PL'
p2963
sba(i__main__
Stop
p2964
(dp2965
g3
S'43.522439'
p2966
sg5
(lp2967
S'Route6'
p2968
asg21
S'-80.225757'
p2969
sg23
S'HARVARD RD AT RICKSON AVE'
p2970
sba(i__main__
Stop
p2971
(dp2972
g3
S'43.524268'
p2973
sg5
(lp2974
S'Route6'
p2975
asg21
S'-80.221632'
p2976
sg23
S'35 HARVARD AVE AT PLAZA'
p2977
sba(i__main__
Stop
p2978
(dp2979
g3
S'43.5290001927'
p2980
sg5
(lp2981
S'Route6'
p2982
asg21
S'-80.2237748815'
p2983
sg23
S'UNIVERSITY CENTRE'
p2984
sba(i__main__
Stop
p2985
(dp2986
g3
S'43.5290189503'
p2987
sg5
(lp2988
S'Route7'
p2989
asg21
S'-80.2237676879'
p2990
sg23
S'UNIVERSITY CENTRE'
p2991
sba(i__main__
Stop
p2992
(dp2993
g3
S'43.520139'
p2994
sg5
(lp2995
S'Route7'
p2996
asg21
S'-80.214969'
p2997
sg23
S'KORTRIGHT RD AT YEWHOLME DR'
p2998
sba(i__main__
Stop
p2999
(dp3000
g3
S'43.516957'
p3001
sg5
(lp3002
S'Route7'
p3003
asg21
S'-80.216712'
p3004
sg23
S'KORTRIGHT RD AT RICKSON AVE'
p3005
sba(i__main__
Stop
p3006
(dp3007
g3
S'43.514366'
p3008
sg5
(lp3009
S'Route7'
p3010
asg21
S'-80.220191'
p3011
sg23
S'KORTRIGHT RD AT EDINBURGH RD S'
p3012
sba(i__main__
Stop
p3013
(dp3014
g3
S'43.511157'
p3015
sg5
(lp3016
S'Route7'
p3017
asg21
S'-80.224909'
p3018
sg23
S'KORTRIGHT RD AT HANLON CREEK PARK'
p3019
sba(i__main__
Stop
p3020
(dp3021
g3
S'43.509150'
p3022
sg5
(lp3023
S'Route7'
p3024
asg21
S'-80.230868'
p3025
sg23
S'555 KORTRIGHT RD'
p3026
sba(i__main__
Stop
p3027
(dp3028
g3
S'43.507161'
p3029
sg5
(lp3030
S'Route7'
p3031
asg21
S'-80.233591'
p3032
sg23
S'KORTRIGHT RD AT HANLON RD'
p3033
sba(i__main__
Stop
p3034
(dp3035
g3
S'43.505301'
p3036
sg5
(lp3037
S'Route7'
p3038
asg21
S'-80.237312'
p3039
sg23
S'DOWNEY RD AT WOODLAND GLEN DR'
p3040
sba(i__main__
Stop
p3041
(dp3042
g3
S'43.504418'
p3043
sg5
(lp3044
S'Route7'
p3045
asg21
S'-80.242239'
p3046
sg23
S'NISKA RD OPPOSITE TANAGER DR'
p3047
sba(i__main__
Stop
p3048
(dp3049
g3
S'43.503350'
p3050
sg5
(lp3051
S'Route7'
p3052
asg21
S'-80.246134'
p3053
sg23
S'PTARMIGAN DR AT NISKA RD'
p3054
sba(i__main__
Stop
p3055
(dp3056
g3
S'43.499663'
p3057
sg5
(lp3058
S'Route7'
p3059
asg21
S'-80.244210'
p3060
sg23
S'PTARMIGAN DR AT PHEASANT RUN DR'
p3061
sba(i__main__
Stop
p3062
(dp3063
g3
S'43.499782'
p3064
sg5
(lp3065
S'Route7'
p3066
asg21
S'-80.237947'
p3067
sg23
S'PTARMIGAN DR AT DOWNEY RD'
p3068
sba(i__main__
Stop
p3069
(dp3070
g3
S'43.502415'
p3071
sg5
(lp3072
S'Route7'
p3073
asg21
S'-80.239046'
p3074
sg23
S'DOWNEY RD AT HAZELWOOD DR'
p3075
sba(i__main__
Stop
p3076
(dp3077
g3
S'43.504842'
p3078
sg5
(lp3079
S'Route7'
p3080
asg21
S'-80.237961'
p3081
sg23
S'DOWNEY RD AT NISKA RD'
p3082
sba(i__main__
Stop
p3083
(dp3084
g3
S'43.506931'
p3085
sg5
(lp3086
S'Route7'
p3087
asg21
S'-80.233511'
p3088
sg23
S'KORTRIGHT RD AT HANLON RD'
p3089
sba(i__main__
Stop
p3090
(dp3091
g3
S'43.508986'
p3092
sg5
(lp3093
S'Route7'
p3094
asg21
S'-80.230697'
p3095
sg23
S'KORTRIGHT RD AT PLAZA'
p3096
sba(i__main__
Stop
p3097
(dp3098
g3
S'43.511345'
p3099
sg5
(lp3100
S'Route7'
p3101
asg21
S'-80.223941'
p3102
sg23
S'KORTRIGHT RD AT HANLON CREEK PARK'
p3103
sba(i__main__
Stop
p3104
(dp3105
g3
S'43.514312'
p3106
sg5
(lp3107
S'Route7'
p3108
aS'Route58'
p3109
asg21
S'-80.219867'
p3110
sg23
S'KORTRIGHT RD AT EDINBURGH RD S'
p3111
sba(i__main__
Stop
p3112
(dp3113
g3
S'43.516883'
p3114
sg5
(lp3115
S'Route7'
p3116
aS'Route58'
p3117
asg21
S'-80.216423'
p3118
sg23
S'KORTRIGHT RD AT RICKSON AVE'
p3119
sba(i__main__
Stop
p3120
(dp3121
g3
S'43.521627'
p3122
sg5
(lp3123
S'Route7'
p3124
aS'Route58'
p3125
asg21
S'-80.212938'
p3126
sg23
S'KORTRIGHT RD OPPOSITE YEWHOLME DR'
p3127
sba(i__main__
Stop
p3128
(dp3129
g3
S'43.5289652518'
p3130
sg5
(lp3131
S'Route7'
p3132
asg21
S'-80.2237220979'
p3133
sg23
S'UNIVERSITY CENTRE'
p3134
sba(i__main__
Stop
p3135
(dp3136
g3
S'43.555657'
p3137
sg5
(lp3138
S'Route13'
p3139
asg21
S'-80.249466'
p3140
sg23
S'ERAMOSA RD AT ST CATHARINES ST'
p3141
sba(i__main__
Stop
p3142
(dp3143
g3
S'43.556495'
p3144
sg5
(lp3145
S'Route13'
p3146
asg21
S'-80.248788'
p3147
sg23
S'METCALFE ST AT ERAMOSA RD'
p3148
sba(i__main__
Stop
p3149
(dp3150
g3
S'43.554757'
p3151
sg5
(lp3152
S'Route13'
p3153
asg21
S'-80.246360'
p3154
sg23
S'METCALFE ST AT LEMON ST'
p3155
sba(i__main__
Stop
p3156
(dp3157
g3
S'43.553027'
p3158
sg5
(lp3159
S'Route13'
p3160
asg21
S'-80.243956'
p3161
sg23
S'METCALFE ST AT PALMER ST'
p3162
sba(i__main__
Stop
p3163
(dp3164
g3
S'43.551686'
p3165
sg5
(lp3166
S'Route13'
p3167
asg21
S'-80.242077'
p3168
sg23
S'METCALFE ST AT GRANGE ST'
p3169
sba(i__main__
Stop
p3170
(dp3171
g3
S'43.552399'
p3172
sg5
(lp3173
S'Route13'
p3174
asg21
S'-80.240832'
p3175
sg23
S'GRANGE ST AT CLARA ST'
p3176
sba(i__main__
Stop
p3177
(dp3178
g3
S'43.553898'
p3179
sg5
(lp3180
S'Route13'
p3181
asg21
S'-80.238831'
p3182
sg23
S'GRANGE ST AT LOUISA ST'
p3183
sba(i__main__
Stop
p3184
(dp3185
g3
S'43.554622'
p3186
sg5
(lp3187
S'Route13'
p3188
asg21
S'-80.237833'
p3189
sg23
S'GRANGE ST AT STEVENSON ST'
p3190
sba(i__main__
Stop
p3191
(dp3192
g3
S'43.558258'
p3193
sg5
(lp3194
S'Route13'
p3195
asg21
S'-80.240005'
p3196
sg23
S'CASSINO AVE AT WILLIAM ST'
p3197
sba(i__main__
Stop
p3198
(dp3199
g3
S'43.561453'
p3200
sg5
(lp3201
S'Route13'
p3202
asg21
S'-80.235804'
p3203
sg23
S'CASSINO AVE AT PALERMO CRES'
p3204
sba(i__main__
Stop
p3205
(dp3206
g3
S'43.562886'
p3207
sg5
(lp3208
S'Route13'
p3209
asg21
S'-80.234699'
p3210
sg23
S'CASSINO AVE AT HADATI RD'
p3211
sba(i__main__
Stop
p3212
(dp3213
g3
S'43.564485'
p3214
sg5
(lp3215
S'Route13'
p3216
asg21
S'-80.237757'
p3217
sg23
S'HADATI RD AT YEATS CRT'
p3218
sba(i__main__
Stop
p3219
(dp3220
g3
S'43.563892'
p3221
sg5
(lp3222
S'Route13'
p3223
asg21
S'-80.240402'
p3224
sg23
S'HADATI RD AT VICTORIA RD N'
p3225
sba(i__main__
Stop
p3226
(dp3227
g3
S'43.565338'
p3228
sg5
(lp3229
S'Route13'
p3230
aS'Route3A'
p3231
asg21
S'-80.241265'
p3232
sg23
S'EASTVIEW RD AT GLENBURNIE DR'
p3233
sba(i__main__
Stop
p3234
(dp3235
g3
S'43.567369'
p3236
sg5
(lp3237
S'Route13'
p3238
aS'Route3A'
p3239
asg21
S'-80.238478'
p3240
sg23
S'EASTVIEW RD AT MOUNTFORD DR'
p3241
sba(i__main__
Stop
p3242
(dp3243
g3
S'43.568800'
p3244
sg5
(lp3245
S'Route13'
p3246
asg21
S'-80.231242'
p3247
sg23
S'STARWOOD DR AT WATT ST'
p3248
sba(i__main__
Stop
p3249
(dp3250
g3
S'43.567812'
p3251
sg5
(lp3252
S'Route13'
p3253
asg21
S'-80.232014'
p3254
sg23
S'WATT ST AT AUDEN RD'
p3255
sba(i__main__
Stop
p3256
(dp3257
g3
S'43.568895'
p3258
sg5
(lp3259
S'Route13'
p3260
asg21
S'-80.234823'
p3261
sg23
S'AUDEN RD AT EASTVIEW RD'
p3262
sba(i__main__
Stop
p3263
(dp3264
g3
S'43.567445'
p3265
sg5
(lp3266
S'Route13'
p3267
asg21
S'-80.248003'
p3268
sg23
S'ERAMOSA RD AT ORCHARD CRES'
p3269
sba(i__main__
Stop
p3270
(dp3271
g3
S'43.562369'
p3272
sg5
(lp3273
S'Route13'
p3274
asg21
S'-80.248754'
p3275
sg23
S'ERAMOSA RD AT MEYER DR'
p3276
sba(i__main__
Stop
p3277
(dp3278
g3
S'43.559599'
p3279
sg5
(lp3280
S'Route13'
p3281
asg21
S'-80.249172'
p3282
sg23
S'ERAMOSA RD AT STEVENSON ST'
p3283
sba(i__main__
Stop
p3284
(dp3285
g3
S'43.556180'
p3286
sg5
(lp3287
S'Route13'
p3288
asg21
S'-80.249666'
p3289
sg23
S'ERAMOSA RD AT METCALFE ST'
p3290
sba(i__main__
Stop
p3291
(dp3292
g3
S'43.547576'
p3293
sg5
(lp3294
S'Route3A'
p3295
asg21
S'-80.266172'
p3296
sg23
S'WESTMOUNT RD AT LOURDES'
p3297
sba(i__main__
Stop
p3298
(dp3299
g3
S'43.550057'
p3300
sg5
(lp3301
S'Route3A'
p3302
asg21
S'-80.269504'
p3303
sg23
S'WESTMOUNT RD AT DIVISION ST'
p3304
sba(i__main__
Stop
p3305
(dp3306
g3
S'43.548167'
p3307
sg5
(lp3308
S'Route3A'
p3309
asg21
S'-80.266982'
p3310
sg23
S"ST JOSEPH'S HEALTH CENTRE"
p3311
sba(i__main__
Stop
p3312
(dp3313
g3
S'43.550132'
p3314
sg5
(lp3315
S'Route3A'
p3316
asg21
S'-80.269632'
p3317
sg23
S'WESTMOUNT RD AT SPEEDVALE AVE W'
p3318
sba(i__main__
Stop
p3319
(dp3320
g3
S'43.553416'
p3321
sg5
(lp3322
S'Route3A'
p3323
asg21
S'-80.274223'
p3324
sg23
S'KATHLEEN ST AT JUNE AVE'
p3325
sba(i__main__
Stop
p3326
(dp3327
g3
S'43.556149'
p3328
sg5
(lp3329
S'Route3A'
p3330
asg21
S'-80.273176'
p3331
sg23
S'BAILEY AVE AT NICKLIN RD'
p3332
sba(i__main__
Stop
p3333
(dp3334
g3
S'43.560098'
p3335
sg5
(lp3336
S'Route3A'
p3337
asg21
S'-80.282287'
p3338
sg23
S'NICKLIN RD AT WOODLAWN RD'
p3339
sba(i__main__
Stop
p3340
(dp3341
g3
S'43.556747'
p3342
sg5
(lp3343
S'Route3A'
p3344
asg21
S'-80.277169'
p3345
sg23
S'SMART CENTRE GUELPH'
p3346
sba(i__main__
Stop
p3347
(dp3348
g3
S'43.565031'
p3349
sg5
(lp3350
S'Route3A'
p3351
asg21
S'-80.280726'
p3352
sg23
S'21 WOODLAWN RD E'
p3353
sba(i__main__
Stop
p3354
(dp3355
g3
S'43.568502'
p3356
sg5
(lp3357
S'Route3A'
p3358
asg21
S'-80.272502'
p3359
sg23
S'WOODLAWN RD E AT OPPOSITE SENIORS CENTRE'
p3360
sba(i__main__
Stop
p3361
(dp3362
g3
S'43.569297'
p3363
sg5
(lp3364
S'Route3A'
p3365
asg21
S'-80.271413'
p3366
sg23
S'WOODLAWN RD E AT FAIRWAY LANE'
p3367
sba(i__main__
Stop
p3368
(dp3369
g3
S'43.572001'
p3370
sg5
(lp3371
S'Route3A'
p3372
asg21
S'-80.267661'
p3373
sg23
S'WOODLAWN RD E AT GOLFVIEW DR'
p3374
sba(i__main__
Stop
p3375
(dp3376
g3
S'43.574348'
p3377
sg5
(lp3378
S'Route3A'
p3379
asg21
S'-80.264362'
p3380
sg23
S'INVERNESS DR AT GLENBROOK DR'
p3381
sba(i__main__
Stop
p3382
(dp3383
g3
S'43.576641'
p3384
sg5
(lp3385
S'Route3A'
p3386
asg21
S'-80.263157'
p3387
sg23
S'INVERNESS DR AT SIMMONDS DR'
p3388
sba(i__main__
Stop
p3389
(dp3390
g3
S'43.579419'
p3391
sg5
(lp3392
S'Route3A'
p3393
asg21
S'-80.267052'
p3394
sg23
S'VICTORIA RD N AT TRILLIUM WALDORF'
p3395
sba(i__main__
Stop
p3396
(dp3397
g3
S'43.580587'
p3398
sg5
(lp3399
S'Route3A'
p3400
asg21
S'-80.263922'
p3401
sg23
S'VICTORIA RD N AT WOODLAWN RD E'
p3402
sba(i__main__
Stop
p3403
(dp3404
g3
S'43.578088'
p3405
sg5
(lp3406
S'Route3A'
p3407
asg21
S'-80.260540'
p3408
sg23
S'VICTORIA RD N AT DELTA ST'
p3409
sba(i__main__
Stop
p3410
(dp3411
g3
S'43.574215'
p3412
sg5
(lp3413
S'Route3A'
p3414
asg21
S'-80.255175'
p3415
sg23
S'VICTORIA RD N AT SPEEDVALE AVE E'
p3416
sba(i__main__
Stop
p3417
(dp3418
g3
S'43.57071'
p3419
sg5
(lp3420
S'Route3A'
p3421
asg21
S'-80.250349'
p3422
sg23
S'VICTORIA RD N AT ERAMOSA RD'
p3423
sba(i__main__
Stop
p3424
(dp3425
g3
S'43.569232'
p3426
sg5
(lp3427
S'Route3A'
p3428
asg21
S'-80.248344'
p3429
sg23
S"VICTORIA RD N AT ST PAUL'S CHURCH"
p3430
sba(i__main__
Stop
p3431
(dp3432
g3
S'43.566676'
p3433
sg5
(lp3434
S'Route3A'
p3435
asg21
S'-80.244711'
p3436
sg23
S'EASTVIEW RD AT GLENBURNIE DR'
p3437
sba(i__main__
Stop
p3438
(dp3439
g3
S'43.572509'
p3440
sg5
(lp3441
S'Route3A'
p3442
asg21
S'-80.231266'
p3443
sg23
S'EASTVIEW RD AT SUMMIT RIDGE DR'
p3444
sba(i__main__
Stop
p3445
(dp3446
g3
S'43.570255'
p3447
sg5
(lp3448
S'Route3A'
p3449
asg21
S'-80.234530'
p3450
sg23
S'WATSON PKWY N AT GRANGE RD'
p3451
sba(i__main__
Stop
p3452
(dp3453
g3
S'43.573466'
p3454
sg5
(lp3455
S'Route3A'
p3456
asg21
S'-80.217970'
p3457
sg23
S'WATSON PKWY N AT FLEMING RD'
p3458
sba(i__main__
Stop
p3459
(dp3460
g3
S'43.570527'
p3461
sg5
(lp3462
S'Route3A'
p3463
asg21
S'-80.213770'
p3464
sg23
S'WATSON PKWY N AT LIBRARY'
p3465
sba(i__main__
Stop
p3466
(dp3467
g3
S'43.56144'
p3468
sg5
(lp3469
S'Route3A'
p3470
asg21
S'-80.210956'
p3471
sg23
S'YORK RD AT YORKHAVEN PL'
p3472
sba(i__main__
Stop
p3473
(dp3474
g3
S'43.557049'
p3475
sg5
(lp3476
S'Route3A'
p3477
asg21
S'-80.217005'
p3478
sg23
S'YORK RD AT ROYAL CITY JAYCEES PARK'
p3479
sba(i__main__
Stop
p3480
(dp3481
g3
S'43.554908'
p3482
sg5
(lp3483
S'Route3A'
p3484
asg21
S'-80.219940'
p3485
sg23
S'YORK RD AT BEAUMONT CRES'
p3486
sba(i__main__
Stop
p3487
(dp3488
g3
S'43.551612'
p3489
sg5
(lp3490
S'Route3A'
p3491
asg21
S'-80.223573'
p3492
sg23
S'VICTORIA RD AT YORK RD'
p3493
sba(i__main__
Stop
p3494
(dp3495
g3
S'43.539442'
p3496
sg5
(lp3497
S'Route3A'
p3498
asg21
S'-80.207876'
p3499
sg23
S'STONE RD E AT VICTORIA RD S'
p3500
sba(i__main__
Stop
p3501
(dp3502
g3
S'43.533696'
p3503
sg5
(lp3504
S'Route3A'
p3505
asg21
S'-80.215470'
p3506
sg23
S'STONE RD E AT ARBOUR MEDICAL CENTRE'
p3507
sba(i__main__
Stop
p3508
(dp3509
g3
S'43.530139'
p3510
sg5
(lp3511
S'Route3A'
p3512
asg21
S'-80.225670'
p3513
sg23
S'UNIVERSITY CENTRE'
p3514
sba(i__main__
Stop
p3515
(dp3516
g3
S'43.541833'
p3517
sg5
(lp3518
S'Route5'
p3519
asg21
S'-80.248111'
p3520
sg23
S'GORDON ST AT NOTTINGHAM ST'
p3521
sba(i__main__
Stop
p3522
(dp3523
g3
S'43.514317'
p3524
sg5
(lp3525
S'Route5'
p3526
asg21
S'-80.198502'
p3527
sg23
S'ARKELL RD AT GORDON ST'
p3528
sba(i__main__
Stop
p3529
(dp3530
g3
S'43.516206'
p3531
sg5
(lp3532
S'Route5'
p3533
asg21
S'-80.196032'
p3534
sg23
S'ARKELL RD AT RIDGEWAY  AVE'
p3535
sba(i__main__
Stop
p3536
(dp3537
g3
S'43.517618'
p3538
sg5
(lp3539
S'Route5'
p3540
asg21
S'-80.190957'
p3541
sg23
S'SUMMERFIELD DR AT AMSTERDAM CRES'
p3542
sba(i__main__
Stop
p3543
(dp3544
g3
S'43.515529'
p3545
sg5
(lp3546
S'Route5'
p3547
asg21
S'-80.188602'
p3548
sg23
S'SUMMERFIELD DR AT CUMMINGS CRT'
p3549
sba(i__main__
Stop
p3550
(dp3551
g3
S'43.516626'
p3552
sg5
(lp3553
S'Route5'
p3554
asg21
S'-80.184407'
p3555
sg23
S'SUMMERFIELD DR AT BRIGHT LANE'
p3556
sba(i__main__
Stop
p3557
(dp3558
g3
S'43.519835'
p3559
sg5
(lp3560
S'Route5'
p3561
asg21
S'-80.179976'
p3562
sg23
S'SUMMERFIELD DR AT VICTORIA RD S'
p3563
sba(i__main__
Stop
p3564
(dp3565
g3
S'43.515015'
p3566
sg5
(lp3567
S'Route5'
p3568
aS'Route56'
p3569
asg21
S'-80.175363'
p3570
sg23
S'FREDERICK DR AT WATERFORD DR'
p3571
sba(i__main__
Stop
p3572
(dp3573
g3
S'43.511743'
p3574
sg5
(lp3575
S'Route5'
p3576
asg21
S'-80.177101'
p3577
sg23
S'GOODWIN DR AT RAY CRES'
p3578
sba(i__main__
Stop
p3579
(dp3580
g3
S'43.508079'
p3581
sg5
(lp3582
S'Route5'
p3583
asg21
S'-80.181977'
p3584
sg23
S'GOODWIN DR AT ORIN REID PARK'
p3585
sba(i__main__
Stop
p3586
(dp3587
g3
S'43.505911'
p3588
sg5
(lp3589
S'Route5'
p3590
asg21
S'-80.184901'
p3591
sg23
S'GOODWIN DR AT SINCLAIR ST'
p3592
sba(i__main__
Stop
p3593
(dp3594
g3
S'43.504005'
p3595
sg5
(lp3596
S'Route5'
p3597
asg21
S'-80.186972'
p3598
sg23
S'GOODWIN DR AT DARLING CRES'
p3599
sba(i__main__
Stop
p3600
(dp3601
g3
S'43.503149'
p3602
sg5
(lp3603
S'Route5'
p3604
asg21
S'-80.188012'
p3605
sg23
S'GOODWIN DR AT EUGENE DR'
p3606
sba(i__main__
Stop
p3607
(dp3608
g3
S'43.504066'
p3609
sg5
(lp3610
S'Route5'
p3611
asg21
S'-80.190228'
p3612
sg23
S'FARLEY DR AT PORTER DR'
p3613
sba(i__main__
Stop
p3614
(dp3615
g3
S'43.508404'
p3616
sg5
(lp3617
S'Route5'
p3618
asg21
S'-80.192302'
p3619
sg23
S'PINE RIDGE DR AT PERIWINKLE WAY'
p3620
sba(i__main__
Stop
p3621
(dp3622
g3
S'43.509005'
p3623
sg5
(lp3624
S'Route5'
p3625
aS'Route Gordon Corridor'
p3626
asg21
S'-80.195565'
p3627
sg23
S'GORDON ST AT LOWES RD'
p3628
sba(i__main__
Stop
p3629
(dp3630
g3
S'43.511767'
p3631
sg5
(lp3632
S'Route5'
p3633
aS'Route16'
p3634
aS'Route Gordon Corridor'
p3635
asg21
S'-80.196885'
p3636
sg23
S'GORDON ST AT CONTINUING EDUCATION'
p3637
sba(i__main__
Stop
p3638
(dp3639
g3
S'43.514027'
p3640
sg5
(lp3641
S'Route5'
p3642
aS'Route56'
p3643
aS'Route16'
p3644
aS'Route Gordon Corridor'
p3645
asg21
S'-80.199648'
p3646
sg23
S'GORDON ST AT ARKELL RD'
p3647
sba(i__main__
Stop
p3648
(dp3649
g3
S'43.541072'
p3650
sg5
(lp3651
S'Route5'
p3652
asg21
S'-80.245274'
p3653
sg23
S'GORDON ST AT WELLINGTON ST'
p3654
sba(i__main__
Stop
p3655
(dp3656
g3
S'43.541884'
p3657
sg5
(lp3658
S'Route5'
p3659
asg21
S'-80.247619'
p3660
sg23
S"GORDON ST AT HARVEY'S"
p3661
sba(i__main__
Stop
p3662
(dp3663
g3
S'43.543346'
p3664
sg5
(lp3665
S'Route5'
p3666
aS'Route8'
p3667
aS'Route9'
p3668
asg21
S'-80.249107'
p3669
sg23
S'CITY HALL'
p3670
sba(i__main__
Stop
p3671
(dp3672
g3
S'43.530139124615'
p3673
sg5
(lp3674
S'Route15'
p3675
asg21
S'-80.22567'
p3676
sg23
S'UNIVERSITY CENTRE'
p3677
sba(i__main__
Stop
p3678
(dp3679
g3
S'43.527478'
p3680
sg5
(lp3681
S'Route15'
p3682
asg21
S'-80.226352'
p3683
sg23
S'GORDON ST AT STONE RD W'
p3684
sba(i__main__
Stop
p3685
(dp3686
g3
S'43.526145'
p3687
sg5
(lp3688
S'Route15'
p3689
aS'Route58'
p3690
aS'Route50'
p3691
asg21
S'-80.225538'
p3692
sg23
S'STONE RD W AT GORDON ST'
p3693
sba(i__main__
Stop
p3694
(dp3695
g3
S'43.524050'
p3696
sg5
(lp3697
S'Route15'
p3698
aS'Route58'
p3699
aS'Route50'
p3700
asg21
S'-80.228457'
p3701
sg23
S'STONE RD W AT FIRE HALL'
p3702
sba(i__main__
Stop
p3703
(dp3704
g3
S'43.522019'
p3705
sg5
(lp3706
S'Route15'
p3707
aS'Route58'
p3708
aS'Route50'
p3709
asg21
S'-80.231231'
p3710
sg23
S'STONE RD W AT ZELLERS'
p3711
sba(i__main__
Stop
p3712
(dp3713
g3
S'43.517856'
p3714
sg5
(lp3715
S'Route15'
p3716
aS'Route50'
p3717
asg21
S'-80.236974'
p3718
sg23
S'STONE RD W AT STONE RD MALL'
p3719
sba(i__main__
Stop
p3720
(dp3721
g3
S'43.516019'
p3722
sg5
(lp3723
S'Route15'
p3724
aS'Route50'
p3725
asg21
S'-80.239549'
p3726
sg23
S'STONE RD W AT SCOTTSDALE DR'
p3727
sba(i__main__
Stop
p3728
(dp3729
g3
S'43.509914'
p3730
sg5
(lp3731
S'Route15'
p3732
asg21
S'-80.247323'
p3733
sg23
S'STONE RD W AT WOODLAND GLEN DR'
p3734
sba(i__main__
Stop
p3735
(dp3736
g3
S'43.510561'
p3737
sg5
(lp3738
S'Route15'
p3739
asg21
S'-80.250192'
p3740
sg23
S'COLLEGE AVE W AT FLANDERS RD'
p3741
sba(i__main__
Stop
p3742
(dp3743
g3
S'43.511738'
p3744
sg5
(lp3745
S'Route15'
p3746
asg21
S'-80.252804'
p3747
sg23
S'COLLEGE AVE W AT CONROY CRES'
p3748
sba(i__main__
Stop
p3749
(dp3750
g3
S'43.513969'
p3751
sg5
(lp3752
S'Route15'
p3753
asg21
S'-80.256203'
p3754
sg23
S'COLLEGE AVE W AT ARGYLE DR'
p3755
sba(i__main__
Stop
p3756
(dp3757
g3
S'43.513974835'
p3758
sg5
(lp3759
S'Route15'
p3760
asg21
S'-80.2562593432'
p3761
sg23
S'506 COLLEGE AVE W'
p3762
sba(i__main__
Stop
p3763
(dp3764
g3
S'43.519598'
p3765
sg5
(lp3766
S'Route15'
p3767
asg21
S'-80.249119'
p3768
sg23
S'COLLEGE AVE W EAST OF HANLON'
p3769
sba(i__main__
Stop
p3770
(dp3771
g3
S'43.517968'
p3772
sg5
(lp3773
S'Route15'
p3774
aS'Route8'
p3775
asg21
S'-80.245711'
p3776
sg23
S'129 JANEFIELD AVE'
p3777
sba(i__main__
Stop
p3778
(dp3779
g3
S'43.516792'
p3780
sg5
(lp3781
S'Route15'
p3782
aS'Route8'
p3783
asg21
S'-80.240925'
p3784
sg23
S'JANEFIELD AVE AT SCOTTSDALE DR'
p3785
sba(i__main__
Stop
p3786
(dp3787
g3
S'43.520977257153'
p3788
sg5
(lp3789
S'Route15'
p3790
asg21
S'-80.23997'
p3791
sg23
S'SCOTTSDALE DR AT WILSONVIEW AVE'
p3792
sba(i__main__
Stop
p3793
(dp3794
g3
S'43.522155872961'
p3795
sg5
(lp3796
S'Route15'
p3797
asg21
S'-80.23865'
p3798
sg23
S'WILSONVIEW AVE'
p3799
sba(i__main__
Stop
p3800
(dp3801
g3
S'43.521444038444'
p3802
sg5
(lp3803
S'Route15'
p3804
asg21
S'-80.2361'
p3805
sg23
S'EDINBURGH RD AT CHANCELLORS WAY'
p3806
sba(i__main__
Stop
p3807
(dp3808
g3
S'43.521656033755'
p3809
sg5
(lp3810
S'Route15'
p3811
asg21
S'-80.23126'
p3812
sg23
S'STONE RD OPPOSITE ZELLERS'
p3813
sba(i__main__
Stop
p3814
(dp3815
g3
S'43.524668620547'
p3816
sg5
(lp3817
S'Route15'
p3818
asg21
S'-80.22719'
p3819
sg23
S'95 STONE RD W'
p3820
sba(i__main__
Stop
p3821
(dp3822
g3
S'43.5298048358'
p3823
sg5
(lp3824
S'Route15'
p3825
asg21
S'-80.2248992018'
p3826
sg23
S'UNIVERSITY CENTRE'
p3827
sba(i__main__
Stop
p3828
(dp3829
g3
S'43.543617'
p3830
sg5
(lp3831
S'Route8'
p3832
asg21
S'-80.246479'
p3833
sg23
S'WYNDHAM ST AT FARQUHAR ST'
p3834
sba(i__main__
Stop
p3835
(dp3836
g3
S'43.5382652'
p3837
sg5
(lp3838
S'Route8'
p3839
asg21
S'-80.24134308'
p3840
sg23
S'GORDON ST AT WATER ST'
p3841
sba(i__main__
Stop
p3842
(dp3843
g3
S'43.536163'
p3844
sg5
(lp3845
S'Route8'
p3846
asg21
S'-80.245144'
p3847
sg23
S'WATER ST AT MCCRAE BLVD'
p3848
sba(i__main__
Stop
p3849
(dp3850
g3
S'43.535130'
p3851
sg5
(lp3852
S'Route8'
p3853
asg21
S'-80.246552'
p3854
sg23
S'WATER ST AT MAPLE ST'
p3855
sba(i__main__
Stop
p3856
(dp3857
g3
S'43.531946'
p3858
sg5
(lp3859
S'Route8'
p3860
asg21
S'-80.243610'
p3861
sg23
S'MAPLE ST AT FOREST ST'
p3862
sba(i__main__
Stop
p3863
(dp3864
g3
S'43.530027'
p3865
sg5
(lp3866
S'Route8'
p3867
asg21
S'-80.246148'
p3868
sg23
S'FOREST ST AT PARK'
p3869
sba(i__main__
Stop
p3870
(dp3871
g3
S'43.527403'
p3872
sg5
(lp3873
S'Route8'
p3874
asg21
S'-80.244524'
p3875
sg23
S'EDINBURGH RD S AT MAPLEWOOD DR'
p3876
sba(i__main__
Stop
p3877
(dp3878
g3
S'43.525295'
p3879
sg5
(lp3880
S'Route8'
p3881
asg21
S'-80.241992'
p3882
sg23
S'COLLEGE AVE W AT EDINBURGH RD'
p3883
sba(i__main__
Stop
p3884
(dp3885
g3
S'43.521545'
p3886
sg5
(lp3887
S'Route8'
p3888
asg21
S'-80.247091'
p3889
sg23
S'COLLEGE AVE W AT CENTENNIAL'
p3890
sba(i__main__
Stop
p3891
(dp3892
g3
S'43.52097726'
p3893
sg5
(lp3894
S'Route8'
p3895
asg21
S'-80.23997247'
p3896
sg23
S'SCOTTSDALE DR AT WILSONVIEW AVE'
p3897
sba(i__main__
Stop
p3898
(dp3899
g3
S'43.521683'
p3900
sg5
(lp3901
S'Route8'
p3902
asg21
S'-80.241866'
p3903
sg23
S'220 SCOTTSDALE DR'
p3904
sba(i__main__
Stop
p3905
(dp3906
g3
S'43.52328'
p3907
sg5
(lp3908
S'Route8'
p3909
asg21
S'-80.243572'
p3910
sg23
S'SCOTTSDALE DR AT COLLEGE AVE W'
p3911
sba(i__main__
Stop
p3912
(dp3913
g3
S'43.524313'
p3914
sg5
(lp3915
S'Route8'
p3916
asg21
S'-80.243011'
p3917
sg23
S'COLLEGE AVE W AT MEADOWCROFT'
p3918
sba(i__main__
Stop
p3919
(dp3920
g3
S'43.526849'
p3921
sg5
(lp3922
S'Route8'
p3923
asg21
S'-80.243384'
p3924
sg23
S'EDINBURGH RD S AT FLORAL DR'
p3925
sba(i__main__
Stop
p3926
(dp3927
g3
S'43.528513'
p3928
sg5
(lp3929
S'Route8'
p3930
asg21
S'-80.245737'
p3931
sg23
S'EDINBURGH RD S AT LOCKYER RD'
p3932
sba(i__main__
Stop
p3933
(dp3934
g3
S'43.529964'
p3935
sg5
(lp3936
S'Route8'
p3937
asg21
S'-80.247792'
p3938
sg23
S'EDINBURGH RD S AT MUNICIPAL ST'
p3939
sba(i__main__
Stop
p3940
(dp3941
g3
S'43.532367'
p3942
sg5
(lp3943
S'Route8'
p3944
asg21
S'-80.251159'
p3945
sg23
S'EDINBURGH RD S AT HONEY CRES'
p3946
sba(i__main__
Stop
p3947
(dp3948
g3
S'43.535829'
p3949
sg5
(lp3950
S'Route8'
p3951
asg21
S'-80.253496'
p3952
sg23
S'BRISTOL ST AT MCGEE ST'
p3953
sba(i__main__
Stop
p3954
(dp3955
g3
S'43.537985'
p3956
sg5
(lp3957
S'Route8'
p3958
asg21
S'-80.252973'
p3959
sg23
S'YORKSHIRE ST S AT WATERLOO AVE'
p3960
sba(i__main__
Stop
p3961
(dp3962
g3
S'43.539053'
p3963
sg5
(lp3964
S'Route8'
p3965
aS'Route9'
p3966
asg21
S'-80.252146'
p3967
sg23
S'WATERLOO AVE AT GLASGOW ST'
p3968
sba(i__main__
Stop
p3969
(dp3970
g3
S'43.541228'
p3971
sg5
(lp3972
S'Route8'
p3973
aS'Route9'
p3974
asg21
S'-80.249835'
p3975
sg23
S'WATERLOO AVE AT NORFOLK ST'
p3976
sba(i__main__
Stop
p3977
(dp3978
g3
S'43.541423'
p3979
sg5
(lp3980
S'Route9'
p3981
asg21
S'-80.249839'
p3982
sg23
S'3 WATERLOO AVE'
p3983
sba(i__main__
Stop
p3984
(dp3985
g3
S'43.538905'
p3986
sg5
(lp3987
S'Route9'
p3988
asg21
S'-80.252519'
p3989
sg23
S'WATERLOO AVE AT GLASGOW ST'
p3990
sba(i__main__
Stop
p3991
(dp3992
g3
S'43.536579'
p3993
sg5
(lp3994
S'Route9'
p3995
asg21
S'-80.254987'
p3996
sg23
S'WATERLOO AVE AT YORKSHIRE STS'
p3997
sba(i__main__
Stop
p3998
(dp3999
g3
S'43.535168'
p4000
sg5
(lp4001
S'Route9'
p4002
asg21
S'-80.256495'
p4003
sg23
S'225 WATERLOO AVE'
p4004
sba(i__main__
Stop
p4005
(dp4006
g3
S'43.531039'
p4007
sg5
(lp4008
S'Route9'
p4009
asg21
S'-80.260912'
p4010
sg23
S'WATERLOO AVE AT BEACHWOOD AVE'
p4011
sba(i__main__
Stop
p4012
(dp4013
g3
S'43.531329'
p4014
sg5
(lp4015
S'Route9'
p4016
asg21
S'-80.260792'
p4017
sg23
S'387 WATERLOO AVE'
p4018
sba(i__main__
Stop
p4019
(dp4020
g3
S'43.522844'
p4021
sg5
(lp4022
S'Route9'
p4023
asg21
S'-80.267664'
p4024
sg23
S'IMPERIAL RD S AT WELLINGTON ST N'
p4025
sba(i__main__
Stop
p4026
(dp4027
g3
S'43.523257'
p4028
sg5
(lp4029
S'Route9'
p4030
asg21
S'-80.275745'
p4031
sg23
S'IMPERIAL RD S AT STEPHANIE DR'
p4032
sba(i__main__
Stop
p4033
(dp4034
g3
S'43.525287'
p4035
sg5
(lp4036
S'Route9'
p4037
asg21
S'-80.279945'
p4038
sg23
S'IMPERIAL RD S AT DEERPATH DR'
p4039
sba(i__main__
Stop
p4040
(dp4041
g3
S'43.525522'
p4042
sg5
(lp4043
S'Route9'
p4044
asg21
S'-80.284368'
p4045
sg23
S'IMPERIAL RD S  AT PAISLEY ST'
p4046
sba(i__main__
Stop
p4047
(dp4048
g3
S'43.522527'
p4049
sg5
(lp4050
S'Route9'
p4051
asg21
S'-80.288064'
p4052
sg23
S'PAISLEY RD AT ZEHRS'
p4053
sba(i__main__
Stop
p4054
(dp4055
g3
S'43.522384'
p4056
sg5
(lp4057
S'Route9'
p4058
asg21
S'-80.281820'
p4059
sg23
S'STEPHANIE DR AT HOLLYBERRY PL'
p4060
sba(i__main__
Stop
p4061
(dp4062
g3
S'43.522953'
p4063
sg5
(lp4064
S'Route9'
p4065
asg21
S'-80.276464'
p4066
sg23
S'STEPHANIE DR AT IMPERIAL RD'
p4067
sba(i__main__
Stop
p4068
(dp4069
g3
S'43.522296'
p4070
sg5
(lp4071
S'Route9'
p4072
asg21
S'-80.273921'
p4073
sg23
S'IMPERIAL RD AT WEST ACRES DR'
p4074
sba(i__main__
Stop
p4075
(dp4076
g3
S'43.520752'
p4077
sg5
(lp4078
S'Route9'
p4079
asg21
S'-80.269868'
p4080
sg23
S'IMPERIAL RD S AT TIM HORTONS'
p4081
sba(i__main__
Stop
p4082
(dp4083
g3
S'43.522873'
p4084
sg5
(lp4085
S'Route9'
p4086
asg21
S'-80.267234'
p4087
sg23
S'WELLINGTON ST W AT WASTEWATER TREATMENT PLANT'
p4088
sba(i__main__
Stop
p4089
(dp4090
g3
S'43.531117'
p4091
sg5
(lp4092
S'Route9'
p4093
asg21
S'-80.260625'
p4094
sg23
S'364 WATERLOO RD'
p4095
sba(i__main__
Stop
p4096
(dp4097
g3
S'43.533616'
p4098
sg5
(lp4099
S'Route9'
p4100
asg21
S'-80.257973'
p4101
sg23
S'WATERLOO AVE AT ST ARNAUD ST'
p4102
sba(i__main__
Stop
p4103
(dp4104
g3
S'43.536488'
p4105
sg5
(lp4106
S'Route9'
p4107
asg21
S'-80.254882'
p4108
sg23
S'180 WATERLOO AVE'
p4109
sba(i__main__
Stop
p4110
(dp4111
g3
S'43.533012'
p4112
sg5
(lp4113
S'Route56'
p4114
asg21
S'-80.197783'
p4115
sg23
S'1035 VICTORIA'
p4116
sba(i__main__
Stop
p4117
(dp4118
g3
S'43.523694'
p4119
sg5
(lp4120
S'Route56'
p4121
asg21
S'-80.1851'
p4122
sg23
S'VICTORIA AT ARKELL'
p4123
sba(i__main__
Stop
p4124
(dp4125
g3
S'43.519637'
p4126
sg5
(lp4127
S'Route56'
p4128
asg21
S'-80.179537'
p4129
sg23
S'VICTORIA @ SUMMERFIELD'
p4130
sba(i__main__
Stop
p4131
(dp4132
g3
S'43.517774'
p4133
sg5
(lp4134
S'Route56'
p4135
asg21
S'-80.176994'
p4136
sg23
S'VICTORIA RD S AT KATEMORE DR'
p4137
sba(i__main__
Stop
p4138
(dp4139
g3
S'43.516704'
p4140
sg5
(lp4141
S'Route56'
p4142
asg21
S'-80.180326'
p4143
sg23
S'264 COLONIAL'
p4144
sba(i__main__
Stop
p4145
(dp4146
g3
S'43.518902'
p4147
sg5
(lp4148
S'Route56'
p4149
asg21
S'-80.183523'
p4150
sg23
S'COLONIAL NORTH OF MARSH'
p4151
sba(i__main__
Stop
p4152
(dp4153
g3
S'43.520837'
p4154
sg5
(lp4155
S'Route56'
p4156
asg21
S'-80.186929'
p4157
sg23
S'COLONIAL NORTH OF BARD BV'
p4158
sba(i__main__
Stop
p4159
(dp4160
g3
S'43.5300871'
p4161
sg5
(lp4162
S'Route57'
p4163
asg21
S'-80.22514689'
p4164
sg23
S'UNIVERSITY DEP'
p4165
sba(i__main__
Stop
p4166
(dp4167
g3
S'43.52734677'
p4168
sg5
(lp4169
S'Route57'
p4170
asg21
S'-80.22615966'
p4171
sg23
S'GORDON ST AT STONE RD W'
p4172
sba(i__main__
Stop
p4173
(dp4174
g3
S'43.52544175'
p4175
sg5
(lp4176
S'Route57'
p4177
asg21
S'-80.22118988'
p4178
sg23
S'GORDON ST AT HARVARD RD'
p4179
sba(i__main__
Stop
p4180
(dp4181
g3
S'43.52403582'
p4182
sg5
(lp4183
S'Route57'
p4184
asg21
S'-80.2228434'
p4185
sg23
S'HARVARD RD AT SHAKESPEARE ARMS'
p4186
sba(i__main__
Stop
p4187
(dp4188
g3
S'43.5204771'
p4189
sg5
(lp4190
S'Route57'
p4191
asg21
S'-80.22858985'
p4192
sg23
S'HARVARD RD AT PRINCETON PL'
p4193
sba(i__main__
Stop
p4194
(dp4195
g3
S'43.51812986'
p4196
sg5
(lp4197
S'Route57'
p4198
asg21
S'-80.22837459'
p4199
sg23
S'HARVARD RD AT YOUNGMAN DR'
p4200
sba(i__main__
Stop
p4201
(dp4202
g3
S'43.51523937'
p4203
sg5
(lp4204
S'Route57'
p4205
asg21
S'-80.23184091'
p4206
sg23
S'IRONWOOD RD AT REID CRT'
p4207
sba(i__main__
Stop
p4208
(dp4209
g3
S'43.51304815'
p4210
sg5
(lp4211
S'Route57'
p4212
asg21
S'-80.23445164'
p4213
sg23
S'711 SCOTTSDALE DR'
p4214
sba(i__main__
Stop
p4215
(dp4216
g3
S'43.51324305'
p4217
sg5
(lp4218
S'Route57'
p4219
asg21
S'-80.2355045'
p4220
sg23
S'632 SCOTTSDALE DR'
p4221
sba(i__main__
Stop
p4222
(dp4223
g3
S'43.51475093'
p4224
sg5
(lp4225
S'Route57'
p4226
asg21
S'-80.23819991'
p4227
sg23
S'SCOTTSDALE @ STONE'
p4228
sba(i__main__
Stop
p4229
(dp4230
g3
S'43.51614704'
p4231
sg5
(lp4232
S'Route57'
p4233
asg21
S'-80.2385857'
p4234
sg23
S'372 STONE RD W'
p4235
sba(i__main__
Stop
p4236
(dp4237
g3
S'43.51758919'
p4238
sg5
(lp4239
S'Route57'
p4240
asg21
S'-80.23664118'
p4241
sg23
S'STONE RD W AT EDINBURGH RD S'
p4242
sba(i__main__
Stop
p4243
(dp4244
g3
S'43.51946083'
p4245
sg5
(lp4246
S'Route57'
p4247
asg21
S'-80.23418163'
p4248
sg23
S'STONE RD OPPOSITE ZELLERS'
p4249
sba(i__main__
Stop
p4250
(dp4251
g3
S'43.52163401'
p4252
sg5
(lp4253
S'Route57'
p4254
asg21
S'-80.2312634'
p4255
sg23
S'95 STONE RD W'
p4256
sba(i__main__
Stop
p4257
(dp4258
g3
S'43.52467'
p4259
sg5
(lp4260
S'Route57'
p4261
asg21
S'-80.22718783'
p4262
sg23
S'UNIVERSITY ARR'
p4263
sba(i__main__
Stop
p4264
(dp4265
g3
S'43.52097726'
p4266
sg5
(lp4267
S'Route50'
p4268
asg21
S'-80.23997'
p4269
sg23
S'SCOTTSDALE DR AT WILSONVIEW AVE'
p4270
sba(i__main__
Stop
p4271
(dp4272
g3
S'43.52215587'
p4273
sg5
(lp4274
S'Route50'
p4275
asg21
S'-80.23865'
p4276
sg23
S'WILSONVIEW AVE'
p4277
sba(i__main__
Stop
p4278
(dp4279
g3
S'43.52144404'
p4280
sg5
(lp4281
S'Route50'
p4282
asg21
S'-80.2361'
p4283
sg23
S'EDINBURGH RD AT CHANCELLORS WAY'
p4284
sba(i__main__
Stop
p4285
(dp4286
g3
S'43.52165603'
p4287
sg5
(lp4288
S'Route50'
p4289
asg21
S'-80.23126'
p4290
sg23
S'STONE RD OPPOSITE ZELLERS'
p4291
sba(i__main__
Stop
p4292
(dp4293
g3
S'43.52466862'
p4294
sg5
(lp4295
S'Route50'
p4296
asg21
S'-80.22719'
p4297
sg23
S'95 STONE RD W'
p4298
sba(i__main__
Stop
p4299
(dp4300
g3
S'43.53013912'
p4301
sg5
(lp4302
S'Route50'
p4303
asg21
S'-80.22567'
p4304
sg23
S'UNIVERSITY CENTRE'
p4305
sba(i__main__
Stop
p4306
(dp4307
g3
S'43.538302'
p4308
sg5
(lp4309
S'Route16'
p4310
asg21
S'-80.241373'
p4311
sg23
S'GORDON ST AT WATER ST'
p4312
sba(i__main__
Stop
p4313
(dp4314
g3
S'43.511734'
p4315
sg5
(lp4316
S'Route16'
p4317
aS'Route Gordon Corridor'
p4318
asg21
S'-80.197178'
p4319
sg23
S'1417 GORDON ST'
p4320
sba(i__main__
Stop
p4321
(dp4322
g3
S'43.508884'
p4323
sg5
(lp4324
S'Route16'
p4325
aS'Route Gordon Corridor'
p4326
asg21
S'-80.19581'
p4327
sg23
S'GORDON ST AT LOWES RD'
p4328
sba(i__main__
Stop
p4329
(dp4330
g3
S'43.503778'
p4331
sg5
(lp4332
S'Route16'
p4333
asg21
S'-80.195952'
p4334
sg23
S'25 CLAIRFIELDS DR'
p4335
sba(i__main__
Stop
p4336
(dp4337
g3
S'43.498568'
p4338
sg5
(lp4339
S'Route16'
p4340
asg21
S'-80.199409'
p4341
sg23
S'OPPOSITE 116 CLAIRFIELDS DR'
p4342
sba(i__main__
Stop
p4343
(dp4344
g3
S'43.495645'
p4345
sg5
(lp4346
S'Route16'
p4347
asg21
S'-80.196711'
p4348
sg23
S'CLAIRFIELDS DR AT BOULDER CR'
p4349
sba(i__main__
Stop
p4350
(dp4351
g3
S'43.499106'
p4352
sg5
(lp4353
S'Route16'
p4354
aS'Route Gordon Corridor'
p4355
asg21
S'-80.191290'
p4356
sg23
S'GOSLING GARDENS AT CLAIR RD W'
p4357
sba(i__main__
Stop
p4358
(dp4359
g3
S'43.501367'
p4360
sg5
(lp4361
S'Route16'
p4362
aS'Route Gordon Corridor'
p4363
asg21
S'-80.192958'
p4364
sg23
S'GOSLING GARDEN PARK'
p4365
sba(i__main__
Stop
p4366
(dp4367
g3
S'43.502542'
p4368
sg5
(lp4369
S'Route16'
p4370
aS'Route Gordon Corridor'
p4371
asg21
S'-80.194578'
p4372
sg23
S'GOSLING GARDEN AT CLAIRFIELDS DR W'
p4373
sba(i__main__
Stop
p4374
(dp4375
g3
S'43.506090'
p4376
sg5
(lp4377
S'Route16'
p4378
aS'Route Gordon Corridor'
p4379
asg21
S'-80.194374'
p4380
sg23
S'GORDON ST AT WESTMINSTER WOODS'
p4381
sba(i__main__
Stop
p4382
(dp4383
g3
S'43.508962'
p4384
sg5
(lp4385
S'Route16'
p4386
asg21
S'-80.19556'
p4387
sg23
S'GORDON ST AT LOWES RD'
p4388
sba(i__main__
Stop
p4389
(dp4390
g3
S'43.527335'
p4391
sg5
(lp4392
S'Route16'
p4393
asg21
S'-80.225692'
p4394
sg23
S'GORDON ST AT SOUTH RING RD'
p4395
sba(i__main__
Stop
p4396
(dp4397
g3
S'43.527055'
p4398
sg5
(lp4399
S'Route Gordon Corridor'
p4400
asg21
S'-80.225258'
p4401
sg23
S'GORDON ST AT SOUTH RING RD E'
p4402
sba.