(lp0
(i__main__
Stop
p1
(dp2
S'lat'
p3
S'stop_lat'
p4
sS'routes'
p5
(lp6
S'stop_id'
p7
asS'lon'
p8
S'stop_lon'
p9
sS'name'
p10
S'STOP_NAME'
p11
sba(i__main__
Stop
p12
(dp13
g3
S'43.545180'
p14
sg5
(lp15
S'2A'
p16
aS'Route2B'
p17
aS'Route3B'
p18
aS'Route10'
p19
aS'Route11'
p20
aS'Route20'
p21
aS'Route12'
p22
aS'Route13'
p23
aS'Route3A'
p24
aS'Route5'
p25
aS'Route8'
p26
aS'Route9'
p27
aS'Route56'
p28
aS'Route16'
p29
asg8
S'-80.246050'
p30
sg10
S'GUELPH CENTRAL STATION'
p31
sba(i__main__
Stop
p32
(dp33
g3
S'43.540815'
p34
sg5
(lp35
S'2A'
p36
aS'Route3B'
p37
aS'Route5'
p38
asg8
S'-80.245214'
p39
sg10
S'KFC ON WELLINGTON ST'
p40
sba(i__main__
Stop
p41
(dp42
g3
S'43.53833'
p43
sg5
(lp44
S'2A'
p45
aS'Route3B'
p46
aS'Route5'
p47
asg8
S'-80.245214'
p48
sg10
S'GORDON ST AT WATER ST'
p49
sba(i__main__
Stop
p50
(dp51
g3
S'43.537154'
p52
sg5
(lp53
S'2A'
p54
aS'Route3B'
p55
aS'Route5'
p56
aS'Route16'
p57
asg8
S'-80.239813'
p58
sg10
S'GORDON ST AT FORBES AVE'
p59
sba(i__main__
Stop
p60
(dp61
g3
S'43.534009'
p62
sg5
(lp63
S'2A'
p64
aS'Route3B'
p65
aS'Route5'
p66
aS'Route16'
p67
asg8
S'-80.235469'
p68
sg10
S'GORDON ST AT DEAN AVE'
p69
sba(i__main__
Stop
p70
(dp71
g3
S'43.531512'
p72
sg5
(lp73
S'2A'
p74
aS'Route3B'
p75
aS'Route21'
p76
aS'Route5'
p77
aS'Route16'
p78
asg8
S'-80.231928'
p79
sg10
S'GORDON ST AT COLLEGE AVE'
p80
sba(i__main__
Stop
p81
(dp82
g3
S'43.529922'
p83
sg5
(lp84
S'2A'
p85
aS'Route3B'
p86
aS'Route Gordon Corridor'
p87
asg8
S'-80.225029'
p88
sg10
S'UNIVERSITY CENTRE'
p89
sba(i__main__
Stop
p90
(dp91
g3
S'43.520363'
p92
sg5
(lp93
S'2A'
p94
aS'Route15'
p95
aS'Route50'
p96
asg8
S'-80.233352'
p97
sg10
S'STONE RD W AT EDINBURGH RD S'
p98
sba(i__main__
Stop
p99
(dp100
g3
S'43.518846'
p101
sg5
(lp102
S'2A'
p103
aS'Route15'
p104
aS'Route8'
p105
aS'Route50'
p106
asg8
S'-80.239222'
p107
sg10
S'STONE RD W AT STONE RD MALL'
p108
sba(i__main__
Stop
p109
(dp110
g3
S'43.522836'
p111
sg5
(lp112
S'2A'
p113
aS'Route9'
p114
asg8
S'-80.267662'
p115
sg10
S'659 WELLINGTON ST W'
p116
sba(i__main__
Stop
p117
(dp118
g3
S'43.517730'
p119
sg5
(lp120
S'2A'
p121
asg8
S'-80.270448'
p122
sg10
S'FIFE RD AT WELLINGTON ST W'
p123
sba(i__main__
Stop
p124
(dp125
g3
S'43.515674'
p126
sg5
(lp127
S'2A'
p128
asg8
S'-80.273254'
p129
sg10
S'FIFE RD AT GATEWAY DR'
p130
sba(i__main__
Stop
p131
(dp132
g3
S'43.513766'
p133
sg5
(lp134
S'2A'
p135
asg8
S'-80.275861'
p136
sg10
S'FIFE RD AT DEERFIELD PL'
p137
sba(i__main__
Stop
p138
(dp139
g3
S'43.516248'
p140
sg5
(lp141
S'2A'
p142
asg8
S'-80.278614'
p143
sg10
S'ELMIRA RD AT WEST ACRES DR'
p144
sba(i__main__
Stop
p145
(dp146
g3
S'43.518995'
p147
sg5
(lp148
S'2A'
p149
asg8
S'-80.282143'
p150
sg10
S'254 ELMIRA RD'
p151
sba(i__main__
Stop
p152
(dp153
g3
S'43.521123'
p154
sg5
(lp155
S'2A'
p156
asg8
S'-80.287336'
p157
sg10
S'ELMIRA RD AT STEPHANIE DR'
p158
sba(i__main__
Stop
p159
(dp160
g3
S'43.522818'
p161
sg5
(lp162
S'2A'
p163
asg8
S'-80.291611'
p164
sg10
S'ELMIRA RD AT ZEHRS'
p165
sba(i__main__
Stop
p166
(dp167
g3
S'43.523519'
p168
sg5
(lp169
S'2A'
p170
asg8
S'-80.293107'
p171
sg10
S'ELMIRA RD AT WEST END COMMUNITY CENTRE'
p172
sba(i__main__
Stop
p173
(dp174
g3
S'43.527343'
p175
sg5
(lp176
S'2A'
p177
asg8
S'-80.296881'
p178
sg10
S'WILLOW RD AT FLAHERTY DR'
p179
sba(i__main__
Stop
p180
(dp181
g3
S'43.528815'
p182
sg5
(lp183
S'2A'
p184
asg8
S'-80.292010'
p185
sg10
S'IMPERIAL RD N AT WILLOW RD'
p186
sba(i__main__
Stop
p187
(dp188
g3
S'43.531740'
p189
sg5
(lp190
S'2A'
p191
asg8
S'-80.294166'
p192
sg10
S'IMPERIAL RD N AT DUNHILL CRES'
p193
sba(i__main__
Stop
p194
(dp195
g3
S'43.535013'
p196
sg5
(lp197
S'2A'
p198
asg8
S'-80.294655'
p199
sg10
S'IMPERIAL RD N AT WESTWOOD RD'
p200
sba(i__main__
Stop
p201
(dp202
g3
S'43.537331'
p203
sg5
(lp204
S'2A'
p205
asg8
S'-80.297226'
p206
sg10
S'IMPERIAL RD N AT SPEEDVALE AVE W'
p207
sba(i__main__
Stop
p208
(dp209
g3
S'43.539986'
p210
sg5
(lp211
S'2A'
p212
asg8
S'-80.294035'
p213
sg10
S'ARC INDUSTRIES'
p214
sba(i__main__
Stop
p215
(dp216
g3
S'43.543038'
p217
sg5
(lp218
S'2A'
p219
asg8
S'-80.298273'
p220
sg10
S'ROYAL RD AT MASSEY RD (GUELPH TOOL)'
p221
sba(i__main__
Stop
p222
(dp223
g3
S'43.540892'
p224
sg5
(lp225
S'2A'
p226
asg8
S'-80.301824'
p227
sg10
S'MASSEY RD AT IMPERIAL RD'
p228
sba(i__main__
Stop
p229
(dp230
g3
S'43.543610'
p231
sg5
(lp232
S'2A'
p233
asg8
S'-80.305658'
p234
sg10
S'IMPERIAL RD N AT WOODLAWN RD W'
p235
sba(i__main__
Stop
p236
(dp237
g3
S'43.545962'
p238
sg5
(lp239
S'2A'
p240
asg8
S'-80.303449'
p241
sg10
S'WOODLAWN RD W AT ROYAL RD'
p242
sba(i__main__
Stop
p243
(dp244
g3
S'43.548807'
p245
sg5
(lp246
S'2A'
p247
asg8
S'-80.299496'
p248
sg10
S'WOODLAWN RD W AT REGAL RD'
p249
sba(i__main__
Stop
p250
(dp251
g3
S'43.551565'
p252
sg5
(lp253
S'2A'
p254
asg8
S'-80.295489'
p255
sg10
S'WOODLAWN RD W AT SILVERCREEK PKWY N'
p256
sba(i__main__
Stop
p257
(dp258
g3
S'43.556114'
p259
sg5
(lp260
S'2A'
p261
asg8
S'-80.289684'
p262
sg10
S'WOODLAWN RD W AT DAWSON RD'
p263
sba(i__main__
Stop
p264
(dp265
g3
S'43.558558'
p266
sg5
(lp267
S'2A'
p268
asg8
S'-80.286155'
p269
sg10
S'WOODLAWN RD W AT EDINBURGH RD N'
p270
sba(i__main__
Stop
p271
(dp272
g3
S'43.560592'
p273
sg5
(lp274
S'2A'
p275
asg8
S'-80.283493'
p276
sg10
S'WOODLAWN RD W AT NICKLIN RD'
p277
sba(i__main__
Stop
p278
(dp279
g3
S'43.564044'
p280
sg5
(lp281
S'2A'
p282
asg8
S'-80.281632'
p283
sg10
S'SMART CENTRE GUELPH'
p284
sba(i__main__
Stop
p285
(dp286
g3
S'43.562030'
p287
sg5
(lp288
S'2A'
p289
asg8
S'-80.273414'
p290
sg10
S'WOOLWICH ST AT MARILYN DR'
p291
sba(i__main__
Stop
p292
(dp293
g3
S'43.559760'
p294
sg5
(lp295
S'2A'
p296
asg8
S'-80.270265'
p297
sg10
S'WOOLWICH ST AT EVERGREEN'
p298
sba(i__main__
Stop
p299
(dp300
g3
S'43.556809'
p301
sg5
(lp302
S'2A'
p303
asg8
S'-80.266247'
p304
sg10
S'WOOLWICH ST AT MAC AVE'
p305
sba(i__main__
Stop
p306
(dp307
g3
S'43.552521'
p308
sg5
(lp309
S'2A'
p310
asg8
S'-80.260325'
p311
sg10
S'WOOLWICH ST AT TIFFANY ST'
p312
sba(i__main__
Stop
p313
(dp314
g3
S'43.549780'
p315
sg5
(lp316
S'2A'
p317
asg8
S'-80.256575'
p318
sg10
S'WOOLWICH ST AT LONDON RD'
p319
sba(i__main__
Stop
p320
(dp321
g3
S'43.548027'
p322
sg5
(lp323
S'2A'
p324
aS'Route3B'
p325
asg8
S'-80.25168'
p326
sg10
S'160 WOOLWICH'
p327
sba(i__main__
Stop
p328
(dp329
g3
S'43.545578'
p330
sg5
(lp331
S'2A'
p332
aS'Route3B'
p333
aS'Route10'
p334
aS'Route11'
p335
aS'Route20'
p336
aS'Route12'
p337
aS'Route13'
p338
asg8
S'-80.249017'
p339
sg10
S'WYNDHAM AT IF SHOE STORE'
p340
sba(i__main__
Stop
p341
(dp342
g3
S'43.546441'
p343
sg5
(lp344
S'Route2B'
p345
aS'Route12'
p346
aS'Route13'
p347
aS'Route3A'
p348
asg8
S'-80.249537'
p349
sg10
S'WYNDHAM ST AT BANK OF NOVA SCOTIA'
p350
sba(i__main__
Stop
p351
(dp352
g3
S'43.548158'
p353
sg5
(lp354
S'Route2B'
p355
aS'Route3A'
p356
asg8
S'-80.251279'
p357
sg10
S'WOOLWICH ST AT CARDIGAN ST'
p358
sba(i__main__
Stop
p359
(dp360
g3
S'43.548768'
p361
sg5
(lp362
S'Route2B'
p363
aS'Route20'
p364
asg8
S'-80.254949'
p365
sg10
S'WOOLWICH ST AT NORWICH ST'
p366
sba(i__main__
Stop
p367
(dp368
g3
S'43.550097'
p369
sg5
(lp370
S'Route2B'
p371
asg8
S'-80.256667'
p372
sg10
S'WOOLWICH ST AT LONDON RD'
p373
sba(i__main__
Stop
p374
(dp375
g3
S'43.551876'
p376
sg5
(lp377
S'Route2B'
p378
asg8
S'-80.259149'
p379
sg10
S'WOOLWICH ST AT KERR ST'
p380
sba(i__main__
Stop
p381
(dp382
g3
S'43.553105'
p383
sg5
(lp384
S'Route2B'
p385
asg8
S'-80.260808'
p386
sg10
S'WOOLWICH ST AT POWELL ST'
p387
sba(i__main__
Stop
p388
(dp389
g3
S'43.555942'
p390
sg5
(lp391
S'Route2B'
p392
asg8
S'-80.264759'
p393
sg10
S'WOOLWICH ST AT EARL ST'
p394
sba(i__main__
Stop
p395
(dp396
g3
S'43.558046'
p397
sg5
(lp398
S'Route2B'
p399
asg8
S'-80.267588'
p400
sg10
S'WOOLWICH ST AT SPEEDVALE AVE'
p401
sba(i__main__
Stop
p402
(dp403
g3
S'43.560206'
p404
sg5
(lp405
S'Route2B'
p406
asg8
S'-80.270552'
p407
sg10
S'WOOLWICH ST AT EVERGREEN'
p408
sba(i__main__
Stop
p409
(dp410
g3
S'43.561971'
p411
sg5
(lp412
S'Route2B'
p413
asg8
S'-80.272989'
p414
sg10
S'WOOLWICH ST AT MARILYN DR'
p415
sba(i__main__
Stop
p416
(dp417
g3
S'43.564940'
p418
sg5
(lp419
S'Route2B'
p420
asg8
S'-80.279664'
p421
sg10
S'SMART CENTRE GUELPH'
p422
sba(i__main__
Stop
p423
(dp424
g3
S'43.561001'
p425
sg5
(lp426
S'Route2B'
p427
asg8
S'-80.283145'
p428
sg10
S'WOODLAWN RD W AT NICKLIN RD'
p429
sba(i__main__
Stop
p430
(dp431
g3
S'43.558487'
p432
sg5
(lp433
S'Route2B'
p434
asg8
S'-80.286658'
p435
sg10
S'WOODLAWN RD W AT EDINBURGH RD N'
p436
sba(i__main__
Stop
p437
(dp438
g3
S'43.556826'
p439
sg5
(lp440
S'Route2B'
p441
asg8
S'-80.288946'
p442
sg10
S'WOODLAWN RD W AT DAWSON RD'
p443
sba(i__main__
Stop
p444
(dp445
g3
S'43.554156'
p446
sg5
(lp447
S'Route2B'
p448
asg8
S'-80.292659'
p449
sg10
S'WOODLAWN RD W AT ARROW RD'
p450
sba(i__main__
Stop
p451
(dp452
g3
S'43.551719'
p453
sg5
(lp454
S'Route2B'
p455
asg8
S'-80.295956'
p456
sg10
S'WOODLAWN RD W AT SILVERCREEK PKWY N'
p457
sba(i__main__
Stop
p458
(dp459
g3
S'43.548709'
p460
sg5
(lp461
S'Route2B'
p462
asg8
S'-80.300078'
p463
sg10
S'WOODLAWN RD W AT REGAL RD'
p464
sba(i__main__
Stop
p465
(dp466
g3
S'43.546404'
p467
sg5
(lp468
S'Route2B'
p469
asg8
S'-80.303239'
p470
sg10
S'WOODLAWN RD W AT ROYAL RD'
p471
sba(i__main__
Stop
p472
(dp473
g3
S'43.543469'
p474
sg5
(lp475
S'Route2B'
p476
asg8
S'-80.305876'
p477
sg10
S'IMPERIAL RD N AT WOODLAWN RD W'
p478
sba(i__main__
Stop
p479
(dp480
g3
S'43.540880'
p481
sg5
(lp482
S'Route2B'
p483
asg8
S'-80.301154'
p484
sg10
S'MASSEY RD AT IMPERIAL RD N'
p485
sba(i__main__
Stop
p486
(dp487
g3
S'43.542591'
p488
sg5
(lp489
S'Route2B'
p490
asg8
S'-80.298386'
p491
sg10
S'ROYAL RD AT MASSEY RD'
p492
sba(i__main__
Stop
p493
(dp494
g3
S'43.539916'
p495
sg5
(lp496
S'Route2B'
p497
asg8
S'-80.294588'
p498
sg10
S'ROYAL AT ARC INDUSTRIES'
p499
sba(i__main__
Stop
p500
(dp501
g3
S'43.536579'
p502
sg5
(lp503
S'Route2B'
p504
asg8
S'-80.296369'
p505
sg10
S'IMPERIAL RD N AT SPEEDVALE AVE W'
p506
sba(i__main__
Stop
p507
(dp508
g3
S'43.534097297637125'
p509
sg5
(lp510
S'Route2B'
p511
asg8
S'-80.294730'
p512
sg10
S'IMPERIAL RD N AT THORNHILL DR'
p513
sba(i__main__
Stop
p514
(dp515
g3
S'43.530773'
p516
sg5
(lp517
S'Route2B'
p518
asg8
S'-80.294209'
p519
sg10
S'IMPERIAL RD N AT KIPLING AVE'
p520
sba(i__main__
Stop
p521
(dp522
g3
S'43.528717'
p523
sg5
(lp524
S'Route2B'
p525
asg8
S'-80.292316'
p526
sg10
S'IMPERIAL RD N AT WILLOW RD'
p527
sba(i__main__
Stop
p528
(dp529
g3
S'43.527623'
p530
sg5
(lp531
S'Route2B'
p532
asg8
S'-80.296562'
p533
sg10
S'WILLOW RD AT FLAHERTY DR'
p534
sba(i__main__
Stop
p535
(dp536
g3
S'43.523239'
p537
sg5
(lp538
S'Route2B'
p539
asg8
S'-80.293729'
p540
sg10
S'ELMIRA RD AT WEST END COMMUNITY CENTRE'
p541
sba(i__main__
Stop
p542
(dp543
g3
S'43.521827'
p544
sg5
(lp545
S'Route2B'
p546
asg8
S'-80.289727'
p547
sg10
S'ELMIRA RD AT PAISLEY'
p548
sba(i__main__
Stop
p549
(dp550
g3
S'43.518734'
p551
sg5
(lp552
S'Route2B'
p553
asg8
S'-80.281997'
p554
sg10
S'ELMIRA RD AT FRESH MEADOW WAY'
p555
sba(i__main__
Stop
p556
(dp557
g3
S'43.516498'
p558
sg5
(lp559
S'Route2B'
p560
asg8
S'-80.279127'
p561
sg10
S'ELMIRA RD AT ROCHELLE DR'
p562
sba(i__main__
Stop
p563
(dp564
g3
S'43.513936'
p565
sg5
(lp566
S'Route2B'
p567
asg8
S'-80.275264'
p568
sg10
S'FIFE RD AT ELMIRA RD'
p569
sba(i__main__
Stop
p570
(dp571
g3
S'43.513878'
p572
sg5
(lp573
S'Route2B'
p574
asg8
S'-80.275337'
p575
sg10
S'FIFE RD AT GATEWAY DR'
p576
sba(i__main__
Stop
p577
(dp578
g3
S'43.517774'
p579
sg5
(lp580
S'Route2B'
p581
asg8
S'-80.270061'
p582
sg10
S'26 FIFE RD AT COOP'
p583
sba(i__main__
Stop
p584
(dp585
g3
S'43.522874'
p586
sg5
(lp587
S'Route2B'
p588
asg8
S'-80.267234'
p589
sg10
S'WELLINGTON ST W AT WASTEWATER TREATMENT PLANT'
p590
sba(i__main__
Stop
p591
(dp592
g3
S'43.516108'
p593
sg5
(lp594
S'Route2B'
p595
aS'Route1B'
p596
aS'Route6'
p597
asg8
S'-80.238548'
p598
sg10
S'STONE RD W AT SCOTTSDALE DR'
p599
sba(i__main__
Stop
p600
(dp601
g3
S'43.517578'
p602
sg5
(lp603
S'Route2B'
p604
aS'Route1B'
p605
aS'Route6'
p606
asg8
S'-80.236634'
p607
sg10
S'372 STONE RD W'
p608
sba(i__main__
Stop
p609
(dp610
g3
S'43.519475'
p611
sg5
(lp612
S'Route2B'
p613
aS'Route1B'
p614
aS'Route6'
p615
asg8
S'-80.234214'
p616
sg10
S'292 STONE RD W'
p617
sba(i__main__
Stop
p618
(dp619
g3
S'43.521656'
p620
sg5
(lp621
S'Route2B'
p622
asg8
S'-80.2312633395195'
p623
sg10
S'STONE RD OPPOSITE ZELLERS'
p624
sba(i__main__
Stop
p625
(dp626
g3
S'43.524669'
p627
sg5
(lp628
S'Route2B'
p629
asg8
S'-80.227194'
p630
sg10
S'95 STONE RD W'
p631
sba(i__main__
Stop
p632
(dp633
g3
S'43.530139'
p634
sg5
(lp635
S'Route2B'
p636
asg8
S'-80.225671'
p637
sg10
S'UNIVERSITY CENTRE'
p638
sba(i__main__
Stop
p639
(dp640
g3
S'43.531442'
p641
sg5
(lp642
S'Route2B'
p643
aS'Route3A'
p644
aS'Route5'
p645
aS'Route16'
p646
asg8
S'-80.231459'
p647
sg10
S'GORDON ST AT VET COLLEGE'
p648
sba(i__main__
Stop
p649
(dp650
g3
S'43.532842'
p651
sg5
(lp652
S'Route2B'
p653
aS'Route3A'
p654
aS'Route5'
p655
aS'Route16'
p656
asg8
S'-80.233321'
p657
sg10
S'GORDON ST AT MACDONALD STEWART ART CENTRE'
p658
sba(i__main__
Stop
p659
(dp660
g3
S'43.536904'
p661
sg5
(lp662
S'Route2B'
p663
aS'Route3A'
p664
aS'Route5'
p665
aS'Route16'
p666
asg8
S'-80.239148'
p667
sg10
S'GORDON ST AT DORMIE LANE'
p668
sba(i__main__
Stop
p669
(dp670
g3
S'43.538124'
p671
sg5
(lp672
S'Route2B'
p673
aS'Route3A'
p674
aS'Route5'
p675
aS'Route16'
p676
asg8
S'-80.240880'
p677
sg10
S'GORDON ST AT WATER ST'
p678
sba(i__main__
Stop
p679
(dp680
g3
S'43.541440'
p681
sg5
(lp682
S'Route2B'
p683
aS'Route16'
p684
asg8
S'-80.244076'
p685
sg10
S'WELLINGTON ST AT WELLINGTON PLAZA'
p686
sba(i__main__
Stop
p687
(dp688
g3
S'43.543369'
p689
sg5
(lp690
S'Route2B'
p691
aS'Route16'
p692
asg8
S'-80.245192'
p693
sg10
S'WYNDHAM ST AT FOUNTAIN ST'
p694
sba(i__main__
Stop
p695
(dp696
g3
S'43.545892'
p697
sg5
(lp698
S'Route2B'
p699
aS'Route3A'
p700
asg8
S'-80.249020'
p701
sg10
S'GUELPH CENTRAL STATION'
p702
sba(i__main__
Stop
p703
(dp704
g3
S'43.541749'
p705
sg5
(lp706
S'Route3B'
p707
asg8
S'-80.247968'
p708
sg10
S'GORDON ST AT NOTTINGHAM ST'
p709
sba(i__main__
Stop
p710
(dp711
g3
S'43.533101'
p712
sg5
(lp713
S'Route3B'
p714
asg8
S'-80.215941'
p715
sg10
S'STONE RD E AT ARBOUR MEDICAL CENTRE'
p716
sba(i__main__
Stop
p717
(dp718
g3
S'43.538966'
p719
sg5
(lp720
S'Route3B'
p721
aS'Route56'
p722
asg8
S'-80.208101'
p723
sg10
S'VICTORIA RD S AT STONE RD E'
p724
sba(i__main__
Stop
p725
(dp726
g3
S'43.552095'
p727
sg5
(lp728
S'Route3B'
p729
asg8
S'-80.223504'
p730
sg10
S'535 YORK RD AT TIM HORTONS'
p731
sba(i__main__
Stop
p732
(dp733
g3
S'43.554649'
p734
sg5
(lp735
S'Route3B'
p736
asg8
S'-80.22002'
p737
sg10
S'YORK RD AT BEAUMONT CRES'
p738
sba(i__main__
Stop
p739
(dp740
g3
S'43.556909'
p741
sg5
(lp742
S'Route3B'
p743
asg8
S'-80.216868'
p744
sg10
S'728 YORK RD'
p745
sba(i__main__
Stop
p746
(dp747
g3
S'43.558812'
p748
sg5
(lp749
S'Route3B'
p750
asg8
S'-80.214229'
p751
sg10
S'785 YORK RD'
p752
sba(i__main__
Stop
p753
(dp754
g3
S'43.561500'
p755
sg5
(lp756
S'Route3B'
p757
asg8
S'-80.210523'
p758
sg10
S'YORK RD AT WATSON PKWY N'
p759
sba(i__main__
Stop
p760
(dp761
g3
S'43.566523'
p762
sg5
(lp763
S'Route3B'
p764
asg8
S'-80.211495'
p765
sg10
S'WATSON PKWY N OPPOSITE LIBRARY'
p766
sba(i__main__
Stop
p767
(dp768
g3
S'43.570403'
p769
sg5
(lp770
S'Route3B'
p771
asg8
S'-80.213451'
p772
sg10
S'WATSON PKWY N AT FLEMING RD'
p773
sba(i__main__
Stop
p774
(dp775
g3
S'43.573888'
p776
sg5
(lp777
S'Route3B'
p778
asg8
S'-80.218251'
p779
sg10
S'WATSON PKWY N AT GRANGE RD'
p780
sba(i__main__
Stop
p781
(dp782
g3
S'43.577843'
p783
sg5
(lp784
S'Route3B'
p785
asg8
S'-80.223768'
p786
sg10
S'WATSON PKWY N AT  EASTVIEW RD'
p787
sba(i__main__
Stop
p788
(dp789
g3
S'43.572774'
p790
sg5
(lp791
S'Route3B'
p792
asg8
S'-80.231459'
p793
sg10
S'EASTVIEW RD AT SUMMIT RIDGE DR'
p794
sba(i__main__
Stop
p795
(dp796
g3
S'43.570083'
p797
sg5
(lp798
S'Route3B'
p799
asg8
S'-80.235092'
p800
sg10
S'EASTVIEW RD AT STARWOOD DR'
p801
sba(i__main__
Stop
p802
(dp803
g3
S'43.567393'
p804
sg5
(lp805
S'Route3B'
p806
aS'Route13'
p807
asg8
S'-80.238771'
p808
sg10
S'EASTVIEW RD AT MOUNTFORD DR'
p809
sba(i__main__
Stop
p810
(dp811
g3
S'43.565032'
p812
sg5
(lp813
S'Route3B'
p814
aS'Route13'
p815
asg8
S'-80.241989'
p816
sg10
S'EASTVIEW RD AT VICTORIA RD'
p817
sba(i__main__
Stop
p818
(dp819
g3
S'43.567067'
p820
sg5
(lp821
S'Route3B'
p822
aS'Route13'
p823
asg8
S'-80.244971'
p824
sg10
S'211 VICTORIA RD N'
p825
sba(i__main__
Stop
p826
(dp827
g3
S'43.56962'
p828
sg5
(lp829
S'Route3B'
p830
asg8
S'-80.248568'
p831
sg10
S'VICTORIA RD N AT ERAMOSA RD'
p832
sba(i__main__
Stop
p833
(dp834
g3
S'43.57197'
p835
sg5
(lp836
S'Route3B'
p837
aS'Route12'
p838
asg8
S'-80.251773'
p839
sg10
S'VICTORIA RD N AT SPEEDVALE AVE E'
p840
sba(i__main__
Stop
p841
(dp842
g3
S'43.575281'
p843
sg5
(lp844
S'Route3B'
p845
aS'Route12'
p846
asg8
S'-80.256345'
p847
sg10
S'VICTORIA RD N AT BRANT AVE'
p848
sba(i__main__
Stop
p849
(dp850
g3
S'43.578063'
p851
sg5
(lp852
S'Route3B'
p853
asg8
S'-80.260204'
p854
sg10
S'VICTORIA RD N AT WOODLAWN RD E'
p855
sba(i__main__
Stop
p856
(dp857
g3
S'43.580826'
p858
sg5
(lp859
S'Route3B'
p860
asg8
S'-80.264077'
p861
sg10
S'VICTORIA RD N OPPOSITE TRILLIUM WALDORF'
p862
sba(i__main__
Stop
p863
(dp864
g3
S'43.579009'
p865
sg5
(lp866
S'Route3B'
p867
asg8
S'-80.266687'
p868
sg10
S'INVERNESS DR AT WILTON RD'
p869
sba(i__main__
Stop
p870
(dp871
g3
S'43.576353'
p872
sg5
(lp873
S'Route3B'
p874
asg8
S'-80.262822'
p875
sg10
S'INVERNESS DR AT WOODLAWN RD'
p876
sba(i__main__
Stop
p877
(dp878
g3
S'43.574227'
p879
sg5
(lp880
S'Route3B'
p881
asg8
S'-80.264853'
p882
sg10
S'WOODLAWN RD E AT GOLFVIEW DR'
p883
sba(i__main__
Stop
p884
(dp885
g3
S'43.571818'
p886
sg5
(lp887
S'Route3B'
p888
asg8
S'-80.268227'
p889
sg10
S'WOODLAWN RD E AT COUNTRY CLUB DR'
p890
sba(i__main__
Stop
p891
(dp892
g3
S'43.568609'
p893
sg5
(lp894
S'Route3B'
p895
asg8
S'-80.272695'
p896
sg10
S'WOODLAWN RD E AT RIVERSIDE GLEN'
p897
sba(i__main__
Stop
p898
(dp899
g3
S'43.566001'
p900
sg5
(lp901
S'Route3B'
p902
asg8
S'-80.276314'
p903
sg10
S'WOODLAWN RD E AT CANADIAN TIRE'
p904
sba(i__main__
Stop
p905
(dp906
g3
S'43.56494'
p907
sg5
(lp908
S'Route3B'
p909
asg8
S'-80.279664'
p910
sg10
S'SMART CENTRE GUELPH'
p911
sba(i__main__
Stop
p912
(dp913
g3
S'43.558355'
p914
sg5
(lp915
S'Route3B'
p916
asg8
S'-80.280122'
p917
sg10
S'NICKLIN RD AT BURNS DR'
p918
sba(i__main__
Stop
p919
(dp920
g3
S'43.557298'
p921
sg5
(lp922
S'Route3B'
p923
asg8
S'-80.276217'
p924
sg10
S'BAILEY AVE AT KATHLEEN ST'
p925
sba(i__main__
Stop
p926
(dp927
g3
S'43.555549'
p928
sg5
(lp929
S'Route3B'
p930
asg8
S'-80.27256'
p931
sg10
S'KATHLEEN ST AT SPEEDVALE AVE W'
p932
sba(i__main__
Stop
p933
(dp934
g3
S'43.553154'
p935
sg5
(lp936
S'Route3B'
p937
asg8
S'-80.274126'
p938
sg10
S'WESTMOUNT RD AT KIMBERLEY DR'
p939
sba(i__main__
Stop
p940
(dp941
g3
S'43.549794'
p942
sg5
(lp943
S'Route3B'
p944
asg8
S'-80.269589'
p945
sg10
S"ST JOSEPH'S HEALTH CENTRE"
p946
sba(i__main__
Stop
p947
(dp948
g3
S'43.550158'
p949
sg5
(lp950
S'Route3B'
p951
asg8
S'-80.270008'
p952
sg10
S'WESTMOUNT RD AT DIVISION ST'
p953
sba(i__main__
Stop
p954
(dp955
g3
S'43.548554'
p956
sg5
(lp957
S'Route3B'
p958
asg8
S'-80.267786'
p959
sg10
S'WESTMOUNT RD AT LOURDES'
p960
sba(i__main__
Stop
p961
(dp962
g3
S'43.545476'
p963
sg5
(lp964
S'Route3B'
p965
asg8
S'-80.263459'
p966
sg10
S'WESTMOUNT RD AT LONDON RD W'
p967
sba(i__main__
Stop
p968
(dp969
g3
S'43.545781'
p970
sg5
(lp971
S'Route3B'
p972
asg8
S'-80.261342'
p973
sg10
S'YORKSHIRE ST N AT HOME ST'
p974
sba(i__main__
Stop
p975
(dp976
g3
S'43.545368'
p977
sg5
(lp978
S'Route3B'
p979
asg8
S'-80.258562'
p980
sg10
S'SUFFOLK ST AT GLASGOW ST'
p981
sba(i__main__
Stop
p982
(dp983
g3
S'43.546335'
p984
sg5
(lp985
S'Route3B'
p986
asg8
S'-80.256689'
p987
sg10
S'SUFFOLK ST AT DUBLIN ST CHURCH'
p988
sba(i__main__
Stop
p989
(dp990
g3
S'43.54582712'
p991
sg5
(lp992
S'Route4'
p993
asg8
S'-80.24580414'
p994
sg10
S'GUELPH CENTRAL STATION'
p995
sba(i__main__
Stop
p996
(dp997
g3
S'43.54413676'
p998
sg5
(lp999
S'Route4'
p1000
asg8
S'-80.24097264'
p1001
sg10
S'NEEVE ST AT ONTARIO ST'
p1002
sba(i__main__
Stop
p1003
(dp1004
g3
S'43.54470417'
p1005
sg5
(lp1006
S'Route4'
p1007
asg8
S'-80.23730491'
p1008
sg10
S'ONTARIO ST AT MANITOBA ST'
p1009
sba(i__main__
Stop
p1010
(dp1011
g3
S'43.54520196'
p1012
sg5
(lp1013
S'Route4'
p1014
asg8
S'-80.23469665'
p1015
sg10
S'168 ONTARIO ST'
p1016
sba(i__main__
Stop
p1017
(dp1018
g3
S'43.54552549'
p1019
sg5
(lp1020
S'Route4'
p1021
asg8
S'-80.23274047'
p1022
sg10
S'ONTARIO ST AT YORK RD'
p1023
sba(i__main__
Stop
p1024
(dp1025
g3
S'43.54671213'
p1026
sg5
(lp1027
S'Route4'
p1028
asg8
S'-80.23080247'
p1029
sg10
S'YORK RD AT MORRIS ST'
p1030
sba(i__main__
Stop
p1031
(dp1032
g3
S'43.54913612'
p1033
sg5
(lp1034
S'Route4'
p1035
asg8
S'-80.22756837'
p1036
sg10
S'YORK RD AT BROCKVILLE AVE'
p1037
sba(i__main__
Stop
p1038
(dp1039
g3
S'43.55078627'
p1040
sg5
(lp1041
S'Route4'
p1042
asg8
S'-80.22533313'
p1043
sg10
S'YORK RD AT AUDREY AVE'
p1044
sba(i__main__
Stop
p1045
(dp1046
g3
S'43.55223214'
p1047
sg5
(lp1048
S'Route4'
p1049
asg8
S'-80.22329365'
p1050
sg10
S'535 YORK RD AT TIM HORTONS'
p1051
sba(i__main__
Stop
p1052
(dp1053
g3
S'43.55458284'
p1054
sg5
(lp1055
S'Route4'
p1056
asg8
S'-80.22014686'
p1057
sg10
S'YORK RD AT BEAUMONT CRES'
p1058
sba(i__main__
Stop
p1059
(dp1060
g3
S'43.55693523'
p1061
sg5
(lp1062
S'Route4'
p1063
asg8
S'-80.21688324'
p1064
sg10
S'728 YORK RD'
p1065
sba(i__main__
Stop
p1066
(dp1067
g3
S'43.55872643'
p1068
sg5
(lp1069
S'Route4'
p1070
asg8
S'-80.21438384'
p1071
sg10
S'895 YORK RD'
p1072
sba(i__main__
Stop
p1073
(dp1074
g3
S'43.56153565'
p1075
sg5
(lp1076
S'Route4'
p1077
asg8
S'-80.21054688'
p1078
sg10
S'YORK RD AT WATSON PKWY N'
p1079
sba(i__main__
Stop
p1080
(dp1081
g3
S'43.56350386'
p1082
sg5
(lp1083
S'Route4'
p1084
asg8
S'-80.20788965'
p1085
sg10
S'YORK RD AT GRANITEWORX'
p1086
sba(i__main__
Stop
p1087
(dp1088
g3
S'43.56449176'
p1089
sg5
(lp1090
S'Route4'
p1091
asg8
S'-80.20546404'
p1092
sg10
S'WATSON RD S AT YORK RD'
p1093
sba(i__main__
Stop
p1094
(dp1095
g3
S'43.56243048'
p1096
sg5
(lp1097
S'Route4'
p1098
asg8
S'-80.20258634'
p1099
sg10
S'WATSON RD S AT AIRPARK PL'
p1100
sba(i__main__
Stop
p1101
(dp1102
g3
S'43.5605435'
p1103
sg5
(lp1104
S'Route4'
p1105
asg8
S'-80.19994552'
p1106
sg10
S'WATSON RD S AT GUELPH TRANSIT CENTRE'
p1107
sba(i__main__
Stop
p1108
(dp1109
g3
S'43.55799165'
p1110
sg5
(lp1111
S'Route4'
p1112
asg8
S'-80.19896715'
p1113
sg10
S'WATSON PKWY S AT DUNLOP DR'
p1114
sba(i__main__
Stop
p1115
(dp1116
g3
S'43.55905022'
p1117
sg5
(lp1118
S'Route4'
p1119
asg8
S'-80.20286232'
p1120
sg10
S'WATSON PKWY S AT CARGILL'
p1121
sba(i__main__
Stop
p1122
(dp1123
g3
S'43.56028046'
p1124
sg5
(lp1125
S'Route4'
p1126
asg8
S'-80.20619722'
p1127
sg10
S'WATSON PKWY S AT TAGGERT ST'
p1128
sba(i__main__
Stop
p1129
(dp1130
g3
S'43.56151064'
p1131
sg5
(lp1132
S'Route4'
p1133
asg8
S'-80.21082655'
p1134
sg10
S'YORK RD AT WATSON PKWY N'
p1135
sba(i__main__
Stop
p1136
(dp1137
g3
S'43.55847725'
p1138
sg5
(lp1139
S'Route4'
p1140
asg8
S'-80.21503684'
p1141
sg10
S'YORK RD AT YORKHAVEN PL'
p1142
sba(i__main__
Stop
p1143
(dp1144
g3
S'43.55703595'
p1145
sg5
(lp1146
S'Route4'
p1147
asg8
S'-80.21700185'
p1148
sg10
S'YORK RD AT ROYAL CITY JAYCEES PARK'
p1149
sba(i__main__
Stop
p1150
(dp1151
g3
S'43.55493605'
p1152
sg5
(lp1153
S'Route4'
p1154
asg8
S'-80.21990711'
p1155
sg10
S'YORK RD AT BEAUMONT CRES'
p1156
sba(i__main__
Stop
p1157
(dp1158
g3
S'43.55154516'
p1159
sg5
(lp1160
S'Route4'
p1161
asg8
S'-80.22455892'
p1162
sg10
S'YORK RD AT VICTORIA RD'
p1163
sba(i__main__
Stop
p1164
(dp1165
g3
S'43.54905218'
p1166
sg5
(lp1167
S'Route4'
p1168
asg8
S'-80.22787225'
p1169
sg10
S'YORK RD AT BROCKVILLE AVE'
p1170
sba(i__main__
Stop
p1171
(dp1172
g3
S'43.54753114'
p1173
sg5
(lp1174
S'Route4'
p1175
asg8
S'-80.22995403'
p1176
sg10
S'YORK RD AT HARRIS ST'
p1177
sba(i__main__
Stop
p1178
(dp1179
g3
S'43.5456181'
p1180
sg5
(lp1181
S'Route4'
p1182
asg8
S'-80.23307566'
p1183
sg10
S'ONTARIO ST AT HURON ST'
p1184
sba(i__main__
Stop
p1185
(dp1186
g3
S'43.54485745'
p1187
sg5
(lp1188
S'Route4'
p1189
asg8
S'-80.23718307'
p1190
sg10
S'70 ONTARIO ST'
p1191
sba(i__main__
Stop
p1192
(dp1193
g3
S'43.54426392'
p1194
sg5
(lp1195
S'Route4'
p1196
asg8
S'-80.2402114'
p1197
sg10
S'ONTARIO ST AT NEEVE ST'
p1198
sba(i__main__
Stop
p1199
(dp1200
g3
S'43.56127596'
p1201
sg5
(lp1202
S'Route4'
p1203
asg8
S'-80.20764978'
p1204
sg10
S'GUELPH CENTRAL STATION'
p1205
sba(i__main__
Stop
p1206
(dp1207
g3
S'43.545395'
p1208
sg5
(lp1209
S'Route10'
p1210
asg8
S'-80.246324'
p1211
sg10
S'GUELPH CENTRAL STATION'
p1212
sba(i__main__
Stop
p1213
(dp1214
g3
S'43.545816'
p1215
sg5
(lp1216
S'Route10'
p1217
asg8
S'-80.249985'
p1218
sg10
S'QUEBEC ST AT BMO'
p1219
sba(i__main__
Stop
p1220
(dp1221
g3
S'43.545416'
p1222
sg5
(lp1223
S'Route10'
p1224
asg8
S'-80.252869'
p1225
sg10
S'PAISLEY ST AT LIBRARY'
p1226
sba(i__main__
Stop
p1227
(dp1228
g3
S'43.543483'
p1229
sg5
(lp1230
S'Route10'
p1231
asg8
S'-80.256727'
p1232
sg10
S'PAISLEY ST AT GLASGOW ST'
p1233
sba(i__main__
Stop
p1234
(dp1235
g3
S'43.542421'
p1236
sg5
(lp1237
S'Route10'
p1238
asg8
S'-80.258820'
p1239
sg10
S'PAISLEY ST AT GCVI'
p1240
sba(i__main__
Stop
p1241
(dp1242
g3
S'43.541522'
p1243
sg5
(lp1244
S'Route10'
p1245
asg8
S'-80.260557'
p1246
sg10
S'PAISLEY ST AT HARRISON AVE'
p1247
sba(i__main__
Stop
p1248
(dp1249
g3
S'43.540699'
p1250
sg5
(lp1251
S'Route10'
p1252
asg8
S'-80.263171'
p1253
sg10
S'PAISLEY ST AT EDINBURGH RD N'
p1254
sba(i__main__
Stop
p1255
(dp1256
g3
S'43.538862'
p1257
sg5
(lp1258
S'Route10'
p1259
asg8
S'-80.265657'
p1260
sg10
S'PAISLEY RD AT ALMA ST'
p1261
sba(i__main__
Stop
p1262
(dp1263
g3
S'43.536467'
p1264
sg5
(lp1265
S'Route10'
p1266
asg8
S'-80.268935'
p1267
sg10
S'PAISLEY RD AT WESTERN AVE'
p1268
sba(i__main__
Stop
p1269
(dp1270
g3
S'43.534616'
p1271
sg5
(lp1272
S'Route10'
p1273
asg8
S'-80.271486'
p1274
sg10
S'PAISLEY RD AT HEATH RD'
p1275
sba(i__main__
Stop
p1276
(dp1277
g3
S'43.535150'
p1278
sg5
(lp1279
S'Route10'
p1280
asg8
S'-80.275370'
p1281
sg10
S'WESTWOOD RD AT SILVERCREEK PKWY N'
p1282
sba(i__main__
Stop
p1283
(dp1284
g3
S'43.532712'
p1285
sg5
(lp1286
S'Route10'
p1287
asg8
S'-80.278921'
p1288
sg10
S'85 WESTWOOD RD'
p1289
sba(i__main__
Stop
p1290
(dp1291
g3
S'43.532762'
p1292
sg5
(lp1293
S'Route10'
p1294
asg8
S'-80.285243'
p1295
sg10
S'225 WESTWOOD RD'
p1296
sba(i__main__
Stop
p1297
(dp1298
g3
S'43.533285'
p1299
sg5
(lp1300
S'Route10'
p1301
aS'Route20'
p1302
asg8
S'-80.288209'
p1303
sg10
S'WILLOW RD AT WESTWOOD RD'
p1304
sba(i__main__
Stop
p1305
(dp1306
g3
S'43.531384'
p1307
sg5
(lp1308
S'Route10'
p1309
asg8
S'-80.290685'
p1310
sg10
S'577 WILLOW RD AT CHURCH'
p1311
sba(i__main__
Stop
p1312
(dp1313
g3
S'43.527646'
p1314
sg5
(lp1315
S'Route10'
p1316
asg8
S'-80.290672'
p1317
sg10
S'IMPERIAL RD S AT FERMAN DR'
p1318
sba(i__main__
Stop
p1319
(dp1320
g3
S'43.522344'
p1321
sg5
(lp1322
S'Route10'
p1323
asg8
S'-80.291079'
p1324
sg10
S'WEST END COMMUNITY CENTRE'
p1325
sba(i__main__
Stop
p1326
(dp1327
g3
S'43.526110'
p1328
sg5
(lp1329
S'Route10'
p1330
asg8
S'-80.285423'
p1331
sg10
S'926 PAISLEY RD'
p1332
sba(i__main__
Stop
p1333
(dp1334
g3
S'43.529005'
p1335
sg5
(lp1336
S'Route10'
p1337
asg8
S'-80.279237'
p1338
sg10
S'PAISLEY RD AT CANDLEWOOD DR'
p1339
sba(i__main__
Stop
p1340
(dp1341
g3
S'43.530899'
p1342
sg5
(lp1343
S'Route10'
p1344
asg8
S'-80.276021'
p1345
sg10
S'PAISLEY RD AT WEST HILL ESTATES'
p1346
sba(i__main__
Stop
p1347
(dp1348
g3
S'43.534478'
p1349
sg5
(lp1350
S'Route10'
p1351
asg8
S'-80.271486'
p1352
sg10
S'PAISLEY RD AT HEATH RD'
p1353
sba(i__main__
Stop
p1354
(dp1355
g3
S'43.536911'
p1356
sg5
(lp1357
S'Route10'
p1358
asg8
S'-80.268142'
p1359
sg10
S'PAISLEY RD AT GOLDIE AVE'
p1360
sba(i__main__
Stop
p1361
(dp1362
g3
S'43.538742'
p1363
sg5
(lp1364
S'Route10'
p1365
asg8
S'-80.265622'
p1366
sg10
S'PAISLEY RD AT ALMA ST'
p1367
sba(i__main__
Stop
p1368
(dp1369
g3
S'43.540451'
p1370
sg5
(lp1371
S'Route10'
p1372
asg8
S'-80.263289'
p1373
sg10
S'PAISLEY RD AT EDINBURGH RD N'
p1374
sba(i__main__
Stop
p1375
(dp1376
g3
S'43.542516'
p1377
sg5
(lp1378
S'Route10'
p1379
aS'Route11'
p1380
asg8
S'-80.258347'
p1381
sg10
S'PAISLEY ST AT YORKSHIRE ST N'
p1382
sba(i__main__
Stop
p1383
(dp1384
g3
S'43.543289'
p1385
sg5
(lp1386
S'Route10'
p1387
aS'Route11'
p1388
asg8
S'-80.256822'
p1389
sg10
S'PAISLEY ST AT GLASGOW ST'
p1390
sba(i__main__
Stop
p1391
(dp1392
g3
S'43.545130'
p1393
sg5
(lp1394
S'Route10'
p1395
asg8
S'-80.253188'
p1396
sg10
S'PAISLEY ST AT NORFOLK ST'
p1397
sba(i__main__
Stop
p1398
(dp1399
g3
S'43.544122'
p1400
sg5
(lp1401
S'Route11'
p1402
asg8
S'-80.250720'
p1403
sg10
S'NORFOLK ST AT ALBION'
p1404
sba(i__main__
Stop
p1405
(dp1406
g3
S'43.547351'
p1407
sg5
(lp1408
S'Route11'
p1409
aS'Route3A'
p1410
asg8
S'-80.254939'
p1411
sg10
S'SUFFOLK ST W AT NORFOLK ST'
p1412
sba(i__main__
Stop
p1413
(dp1414
g3
S'43.546415'
p1415
sg5
(lp1416
S'Route11'
p1417
aS'Route3A'
p1418
asg8
S'-80.256760'
p1419
sg10
S'SUFFOLK ST W AT DUBLIN ST'
p1420
sba(i__main__
Stop
p1421
(dp1422
g3
S'43.545548'
p1423
sg5
(lp1424
S'Route11'
p1425
aS'Route3A'
p1426
asg8
S'-80.258462'
p1427
sg10
S'SUFFOLK ST W AT GLASGOW ST'
p1428
sba(i__main__
Stop
p1429
(dp1430
g3
S'43.544199'
p1431
sg5
(lp1432
S'Route11'
p1433
asg8
S'-80.260931'
p1434
sg10
S'SUFFOLK ST W AT YORKSHIRE ST N'
p1435
sba(i__main__
Stop
p1436
(dp1437
g3
S'43.542564'
p1438
sg5
(lp1439
S'Route11'
p1440
asg8
S'-80.264131'
p1441
sg10
S'SUFFOLK ST W AT EDINBURGH RD N'
p1442
sba(i__main__
Stop
p1443
(dp1444
g3
S'43.542856'
p1445
sg5
(lp1446
S'Route11'
p1447
asg8
S'-80.265335'
p1448
sg10
S'EDINBURGH RD N AT MERCER ST'
p1449
sba(i__main__
Stop
p1450
(dp1451
g3
S'43.545391'
p1452
sg5
(lp1453
S'Route11'
p1454
aS'Route20'
p1455
asg8
S'-80.271529'
p1456
sg10
S'WILLOW RD AT DAWSON RD'
p1457
sba(i__main__
Stop
p1458
(dp1459
g3
S'43.545826'
p1460
sg5
(lp1461
S'Route11'
p1462
asg8
S'-80.274188'
p1463
sg10
S'DAWSON RD AT SHELLDALE CRES'
p1464
sba(i__main__
Stop
p1465
(dp1466
g3
S'43.549314'
p1467
sg5
(lp1468
S'Route11'
p1469
asg8
S'-80.279025'
p1470
sg10
S'DAWSON RD AT DAWSON ROAD MEDICAL CLINIC'
p1471
sba(i__main__
Stop
p1472
(dp1473
g3
S'43.547790'
p1474
sg5
(lp1475
S'Route11'
p1476
asg8
S'-80.282995'
p1477
sg10
S'229 SPEEDVALE AVE W'
p1478
sba(i__main__
Stop
p1479
(dp1480
g3
S'43.545027'
p1481
sg5
(lp1482
S'Route11'
p1483
asg8
S'-80.286831'
p1484
sg10
S'SPEEDVALE AVE W AT SILVERCREEK PKWY N'
p1485
sba(i__main__
Stop
p1486
(dp1487
g3
S'43.542554'
p1488
sg5
(lp1489
S'Route11'
p1490
asg8
S'-80.290189'
p1491
sg10
S'361 SPEEDVALE AVE W'
p1492
sba(i__main__
Stop
p1493
(dp1494
g3
S'43.540700'
p1495
sg5
(lp1496
S'Route11'
p1497
asg8
S'-80.292026'
p1498
sg10
S'MARKSAM RD SOUTH OF SPEEDVALE AVE W'
p1499
sba(i__main__
Stop
p1500
(dp1501
g3
S'43.540369'
p1502
sg5
(lp1503
S'Route11'
p1504
asg8
S'-80.291578'
p1505
sg10
S'177 MARKSAM RD'
p1506
sba(i__main__
Stop
p1507
(dp1508
g3
S'43.537827'
p1509
sg5
(lp1510
S'Route11'
p1511
asg8
S'-80.288856'
p1512
sg10
S'145 MARKSAM RD'
p1513
sba(i__main__
Stop
p1514
(dp1515
g3
S'43.536977'
p1516
sg5
(lp1517
S'Route11'
p1518
asg8
S'-80.283222'
p1519
sg10
S'76 MARKSAM RD'
p1520
sba(i__main__
Stop
p1521
(dp1522
g3
S'43.540246'
p1523
sg5
(lp1524
S'Route11'
p1525
asg8
S'-80.278258'
p1526
sg10
S'WILLOW RD AT SILVERCREEK PKWY'
p1527
sba(i__main__
Stop
p1528
(dp1529
g3
S'43.542696'
p1530
sg5
(lp1531
S'Route11'
p1532
asg8
S'-80.274948'
p1533
sg10
S'158 WILLOW RD'
p1534
sba(i__main__
Stop
p1535
(dp1536
g3
S'43.543569'
p1537
sg5
(lp1538
S'Route11'
p1539
asg8
S'-80.273708'
p1540
sg10
S'66 WILLOW RD'
p1541
sba(i__main__
Stop
p1542
(dp1543
g3
S'43.545212'
p1544
sg5
(lp1545
S'Route11'
p1546
asg8
S'-80.271456'
p1547
sg10
S'26 WILLOW RD'
p1548
sba(i__main__
Stop
p1549
(dp1550
g3
S'43.542215'
p1551
sg5
(lp1552
S'Route11'
p1553
asg8
S'-80.264745'
p1554
sg10
S'200 EDINBURGH RD N'
p1555
sba(i__main__
Stop
p1556
(dp1557
g3
S'43.54513'
p1558
sg5
(lp1559
S'Route11'
p1560
asg8
S'-80.253188'
p1561
sg10
S'PAISLEY ST AT NORFOLK ST'
p1562
sba(i__main__
Stop
p1563
(dp1564
g3
S'43.54518'
p1565
sg5
(lp1566
S'Route14'
p1567
asg8
S'-80.24605'
p1568
sg10
S'GUELPH CENTRAL STATION'
p1569
sba(i__main__
Stop
p1570
(dp1571
g3
S'43.5479'
p1572
sg5
(lp1573
S'Route14'
p1574
asg8
S'-80.241684'
p1575
sg10
S'ELIZABETH ST AT DUKE ST'
p1576
sba(i__main__
Stop
p1577
(dp1578
g3
S'43.549022'
p1579
sg5
(lp1580
S'Route14'
p1581
asg8
S'-80.240144'
p1582
sg10
S'65 ELIZABETH ST'
p1583
sba(i__main__
Stop
p1584
(dp1585
g3
S'43.550865'
p1586
sg5
(lp1587
S'Route14'
p1588
asg8
S'-80.237719'
p1589
sg10
S'ELIZABETH ST AT MORRIS ST'
p1590
sba(i__main__
Stop
p1591
(dp1592
g3
S'43.552852'
p1593
sg5
(lp1594
S'Route14'
p1595
asg8
S'-80.235072'
p1596
sg10
S'ELIZABETH ST AT STEVENSON ST'
p1597
sba(i__main__
Stop
p1598
(dp1599
g3
S'43.555192'
p1600
sg5
(lp1601
S'Route14'
p1602
asg8
S'-80.229946'
p1603
sg10
S'ELIZABETH ST AT VICTORIA RD N'
p1604
sba(i__main__
Stop
p1605
(dp1606
g3
S'43.55779'
p1607
sg5
(lp1608
S'Route14'
p1609
asg8
S'-80.231868'
p1610
sg10
S'GRANGE RD AT VICTORIA RD N'
p1611
sba(i__main__
Stop
p1612
(dp1613
g3
S'43.559965'
p1614
sg5
(lp1615
S'Route14'
p1616
asg8
S'-80.22695'
p1617
sg10
S'GRANGE RD AT SCHRODER CRES'
p1618
sba(i__main__
Stop
p1619
(dp1620
g3
S'43.564124'
p1621
sg5
(lp1622
S'Route14'
p1623
asg8
S'-80.222922'
p1624
sg10
S'GRANGE RD AT BREESGARDEN LANE'
p1625
sba(i__main__
Stop
p1626
(dp1627
g3
S'43.567439'
p1628
sg5
(lp1629
S'Route14'
p1630
asg8
S'-80.222527'
p1631
sg10
S'GRANGE RD AT RALSTON DR'
p1632
sba(i__main__
Stop
p1633
(dp1634
g3
S'43.570595'
p1635
sg5
(lp1636
S'Route14'
p1637
asg8
S'-80.221717'
p1638
sg10
S'GRANGE RD AT KEN DANBY SCHOOL'
p1639
sba(i__main__
Stop
p1640
(dp1641
g3
S'43.573407'
p1642
sg5
(lp1643
S'Route14'
p1644
asg8
S'-80.217850'
p1645
sg10
S'WATSON PKWY N SOUTH OF GRANGE RD N'
p1646
sba(i__main__
Stop
p1647
(dp1648
g3
S'43.570527'
p1649
sg5
(lp1650
S'Route14'
p1651
asg8
S'-80.21377'
p1652
sg10
S'WATSON PKWY N AT FLEMING RD'
p1653
sba(i__main__
Stop
p1654
(dp1655
g3
S'43.566571'
p1656
sg5
(lp1657
S'Route14'
p1658
aS'Route3A'
p1659
asg8
S'-80.211793'
p1660
sg10
S'WATSON PKWY N AT LIBRARY'
p1661
sba(i__main__
Stop
p1662
(dp1663
g3
S'43.566464'
p1664
sg5
(lp1665
S'Route14'
p1666
asg8
S'-80.217997'
p1667
sg10
S'STARWOOD DR AT FLEMING RD'
p1668
sba(i__main__
Stop
p1669
(dp1670
g3
S'43.566748'
p1671
sg5
(lp1672
S'Route14'
p1673
asg8
S'-80.221188'
p1674
sg10
S'STARWOOD DR AT RALSTON DR'
p1675
sba(i__main__
Stop
p1676
(dp1677
g3
S'43.565688'
p1678
sg5
(lp1679
S'Route14'
p1680
asg8
S'-80.22304'
p1681
sg10
S'GRANGE RD AT SILURIAN DR'
p1682
sba(i__main__
Stop
p1683
(dp1684
g3
S'43.560584'
p1685
sg5
(lp1686
S'Route14'
p1687
asg8
S'-80.22639'
p1688
sg10
S'GRANGE RD AT AUDEN RD'
p1689
sba(i__main__
Stop
p1690
(dp1691
g3
S'43.559028'
p1692
sg5
(lp1693
S'Route14'
p1694
asg8
S'-80.228522'
p1695
sg10
S'GRANGE RD AT ST JAMES PARK'
p1696
sba(i__main__
Stop
p1697
(dp1698
g3
S'43.556903'
p1699
sg5
(lp1700
S'Route14'
p1701
asg8
S'-80.231'
p1702
sg10
S'VICTORIA RD N AT GRANGE RD'
p1703
sba(i__main__
Stop
p1704
(dp1705
g3
S'43.555289'
p1706
sg5
(lp1707
S'Route14'
p1708
asg8
S'-80.230253'
p1709
sg10
S'ELIZABETH ST AT VICTORIA RD N'
p1710
sba(i__main__
Stop
p1711
(dp1712
g3
S'43.553328'
p1713
sg5
(lp1714
S'Route14'
p1715
asg8
S'-80.234705'
p1716
sg10
S'ELIZABETH ST AT STEVENSON ST'
p1717
sba(i__main__
Stop
p1718
(dp1719
g3
S'43.551418'
p1720
sg5
(lp1721
S'Route14'
p1722
asg8
S'-80.237208'
p1723
sg10
S'ELIZABETH ST AT MORRIS ST'
p1724
sba(i__main__
Stop
p1725
(dp1726
g3
S'43.549593'
p1727
sg5
(lp1728
S'Route14'
p1729
asg8
S'-80.239644'
p1730
sg10
S'ELIZABETH ST AT HURON ST'
p1731
sba(i__main__
Stop
p1732
(dp1733
g3
S'43.548577'
p1734
sg5
(lp1735
S'Route14'
p1736
asg8
S'-80.240986'
p1737
sg10
S'ELIZABETH ST AT RED CHEVRON CLUB'
p1738
sba(i__main__
Stop
p1739
(dp1740
g3
S'43.542723'
p1741
sg5
(lp1742
S'Route20'
p1743
asg8
S'-80.275201'
p1744
sg10
S'WILLOW RD AT WILLOW ROAD PS'
p1745
sba(i__main__
Stop
p1746
(dp1747
g3
S'43.539628'
p1748
sg5
(lp1749
S'Route20'
p1750
asg8
S'-80.279519'
p1751
sg10
S'WILLOW WEST MALL'
p1752
sba(i__main__
Stop
p1753
(dp1754
g3
S'43.535078'
p1755
sg5
(lp1756
S'Route20'
p1757
asg8
S'-80.285726'
p1758
sg10
S'WILLOW RD AT WESTWOOD PUBLIC SCHOOL'
p1759
sba(i__main__
Stop
p1760
(dp1761
g3
S'43.52762272'
p1762
sg5
(lp1763
S'Route20'
p1764
asg8
S'-80.29656172'
p1765
sg10
S'WILLOW RD AT FLAHERTY DR'
p1766
sba(i__main__
Stop
p1767
(dp1768
g3
S'43.530528'
p1769
sg5
(lp1770
S'Route20'
p1771
asg8
S'-80.303578'
p1772
sg10
S'ELMIRA RD N AT FLAHERTY DR'
p1773
sba(i__main__
Stop
p1774
(dp1775
g3
S'43.53318'
p1776
sg5
(lp1777
S'Route20'
p1778
asg8
S'-80.307097'
p1779
sg10
S'ELMIRA RD N AT INDEPENDENCE PL'
p1780
sba(i__main__
Stop
p1781
(dp1782
g3
S'43.54074'
p1783
sg5
(lp1784
S'Route20'
p1785
asg8
S'-80.301904'
p1786
sg10
S'ELMIRA RD AT MASSEY RD'
p1787
sba(i__main__
Stop
p1788
(dp1789
g3
S'43.535001'
p1790
sg5
(lp1791
S'Route20'
p1792
asg8
S'-80.3092'
p1793
sg10
S'ELMIRA RD AT POWER CORP'
p1794
sba(i__main__
Stop
p1795
(dp1796
g3
S'43.535607'
p1797
sg5
(lp1798
S'Route20'
p1799
asg8
S'-80.318127'
p1800
sg10
S'925 WOODLAWN RD'
p1801
sba(i__main__
Stop
p1802
(dp1803
g3
S'43.533243'
p1804
sg5
(lp1805
S'Route20'
p1806
asg8
S'-80.321935'
p1807
sg10
S'ACROSS FROM 498 GOVERNORS RD'
p1808
sba(i__main__
Stop
p1809
(dp1810
g3
S'43.536058'
p1811
sg5
(lp1812
S'Route20'
p1813
asg8
S'-80.322418'
p1814
sg10
S'110 MALCOLM RD'
p1815
sba(i__main__
Stop
p1816
(dp1817
g3
S'43.537101'
p1818
sg5
(lp1819
S'Route20'
p1820
asg8
S'-80.320916'
p1821
sg10
S'50 MALCOLM RD'
p1822
sba(i__main__
Stop
p1823
(dp1824
g3
S'43.538407'
p1825
sg5
(lp1826
S'Route20'
p1827
asg8
S'-80.319285'
p1828
sg10
S'14 MALCOLM RD'
p1829
sba(i__main__
Stop
p1830
(dp1831
g3
S'43.539932'
p1832
sg5
(lp1833
S'Route20'
p1834
asg8
S'-80.316989'
p1835
sg10
S'2 MALCOLM RD'
p1836
sba(i__main__
Stop
p1837
(dp1838
g3
S'43.533818'
p1839
sg5
(lp1840
S'Route20'
p1841
asg8
S'-80.31935'
p1842
sg10
S'450 MICHENER RD'
p1843
sba(i__main__
Stop
p1844
(dp1845
g3
S'43.531143'
p1846
sg5
(lp1847
S'Route20'
p1848
asg8
S'-80.315595'
p1849
sg10
S'MICHENER RD AT MASSEY RD'
p1850
sba(i__main__
Stop
p1851
(dp1852
g3
S'43.532232'
p1853
sg5
(lp1854
S'Route20'
p1855
asg8
S'-80.31347'
p1856
sg10
S'530 MASSEY RD'
p1857
sba(i__main__
Stop
p1858
(dp1859
g3
S'43.534705'
p1860
sg5
(lp1861
S'Route20'
p1862
asg8
S'-80.30978'
p1863
sg10
S'446 MASSEY RD'
p1864
sba(i__main__
Stop
p1865
(dp1866
g3
S'43.536167'
p1867
sg5
(lp1868
S'Route20'
p1869
asg8
S'-80.307763'
p1870
sg10
S'400 MASSEY RD'
p1871
sba(i__main__
Stop
p1872
(dp1873
g3
S'43.539372'
p1874
sg5
(lp1875
S'Route20'
p1876
asg8
S'-80.30302'
p1877
sg10
S'265 MASSEY RD'
p1878
sba(i__main__
Stop
p1879
(dp1880
g3
S'43.540367'
p1881
sg5
(lp1882
S'Route20'
p1883
asg8
S'-80.301948'
p1884
sg10
S'ACROSS FROM 251 MASSEY RD'
p1885
sba(i__main__
Stop
p1886
(dp1887
g3
S'43.543773'
p1888
sg5
(lp1889
S'Route20'
p1890
asg8
S'-80.305638'
p1891
sg10
S'IMPERIAL RD N OF WOODLAWN RD W'
p1892
sba(i__main__
Stop
p1893
(dp1894
g3
S'43.549077'
p1895
sg5
(lp1896
S'Route20'
p1897
asg8
S'-80.306239'
p1898
sg10
S'190 CURTIS DR'
p1899
sba(i__main__
Stop
p1900
(dp1901
g3
S'43.553665'
p1902
sg5
(lp1903
S'Route20'
p1904
asg8
S'-80.299931'
p1905
sg10
S'CURTIS DR AT SILVERCREEK PKWY'
p1906
sba(i__main__
Stop
p1907
(dp1908
g3
S'43.550834'
p1909
sg5
(lp1910
S'Route20'
p1911
asg8
S'-80.295854'
p1912
sg10
S'SILVERCREEK PKWY PAST WOODLAWN RD'
p1913
sba(i__main__
Stop
p1914
(dp1915
g3
S'43.548019'
p1916
sg5
(lp1917
S'Route20'
p1918
asg8
S'-80.29197'
p1919
sg10
S'SILVERCREEK PKWY N AT CAMPBELL RD'
p1920
sba(i__main__
Stop
p1921
(dp1922
g3
S'43.544924'
p1923
sg5
(lp1924
S'Route20'
p1925
asg8
S'-80.287571'
p1926
sg10
S'254 SILVERCREEK PKWY'
p1927
sba(i__main__
Stop
p1928
(dp1929
g3
S'43.542607'
p1930
sg5
(lp1931
S'Route20'
p1932
asg8
S'-80.28452'
p1933
sg10
S'214 SILVERCREEK PKWY'
p1934
sba(i__main__
Stop
p1935
(dp1936
g3
S'43.540196'
p1937
sg5
(lp1938
S'Route20'
p1939
asg8
S'-80.281091'
p1940
sg10
S'130 SILVERCREEK PWKY'
p1941
sba(i__main__
Stop
p1942
(dp1943
g3
S'43.543695'
p1944
sg5
(lp1945
S'Route20'
p1946
asg8
S'-80.273666'
p1947
sg10
S'WILLOW RD AT SILVERCREEK PKWY'
p1948
sba(i__main__
Stop
p1949
(dp1950
g3
S'43.54228'
p1951
sg5
(lp1952
S'Route20'
p1953
asg8
S'-80.275168'
p1954
sg10
S'158 WILLOW RD'
p1955
sba(i__main__
Stop
p1956
(dp1957
g3
S'43.54497'
p1958
sg5
(lp1959
S'Route20'
p1960
asg8
S'-80.271821'
p1961
sg10
S'66 WILLOW RD'
p1962
sba(i__main__
Stop
p1963
(dp1964
g3
S'43.542186'
p1965
sg5
(lp1966
S'Route20'
p1967
asg8
S'-80.264568'
p1968
sg10
S'200 EDINBURGH RD N'
p1969
sba(i__main__
Stop
p1970
(dp1971
g3
S'43.542622'
p1972
sg5
(lp1973
S'Route20'
p1974
asg8
S'-80.258259'
p1975
sg10
S'PAISLEY ST AT YORKSHIRE ST N'
p1976
sba(i__main__
Stop
p1977
(dp1978
g3
S'43.543326'
p1979
sg5
(lp1980
S'Route20'
p1981
asg8
S'-80.256844'
p1982
sg10
S'PAISLEY ST AT GLASGOW ST'
p1983
sba(i__main__
Stop
p1984
(dp1985
g3
S'43.545390'
p1986
sg5
(lp1987
S'Route20'
p1988
asg8
S'-80.252122'
p1989
sg10
S'PAISLEY ST AT NORFOLK ST'
p1990
sba(i__main__
Stop
p1991
(dp1992
g3
S'43.545180'
p1993
sg5
(lp1994
S'Route21'
p1995
asg8
S'-80.24605'
p1996
sg10
S'GUELPH CENTRAL STATION'
p1997
sba(i__main__
Stop
p1998
(dp1999
g3
S'43.542276'
p2000
sg5
(lp2001
S'Route21'
p2002
aS'Route8'
p2003
aS'Route16'
p2004
asg8
S'-80.243974'
p2005
sg10
S'WELLINGTON ST W AT KFC'
p2006
sba(i__main__
Stop
p2007
(dp2008
g3
S'43.527351'
p2009
sg5
(lp2010
S'Route21'
p2011
aS'Route1A'
p2012
aS'Route6'
p2013
aS'Route7'
p2014
aS'Route5'
p2015
aS'Route16'
p2016
aS'Route Gordon Corridor'
p2017
asg8
S'-80.226173'
p2018
sg10
S'GORDON ST AT STONE RD W'
p2019
sba(i__main__
Stop
p2020
(dp2021
g3
S'43.525153'
p2022
sg5
(lp2023
S'Route21'
p2024
asg8
S'-80.221052'
p2025
sg10
S'GORDON ST AT HARVARD RD'
p2026
sba(i__main__
Stop
p2027
(dp2028
g3
S'43.522309'
p2029
sg5
(lp2030
S'Route21'
p2031
aS'Route1A'
p2032
aS'Route7'
p2033
aS'Route5'
p2034
aS'Route16'
p2035
aS'Route Gordon Corridor'
p2036
asg8
S'-80.213484'
p2037
sg10
S'GORDON ST AT KORTRIGHT RD W'
p2038
sba(i__main__
Stop
p2039
(dp2040
g3
S'43.516595'
p2041
sg5
(lp2042
S'Route21'
p2043
aS'Route1A'
p2044
aS'Route5'
p2045
aS'Route16'
p2046
aS'Route Gordon Corridor'
p2047
asg8
S'-80.203694'
p2048
sg10
S'GORDON ST AT EDINBURGH RD S'
p2049
sba(i__main__
Stop
p2050
(dp2051
g3
S'43.513888'
p2052
sg5
(lp2053
S'Route21'
p2054
aS'Route16'
p2055
aS'Route Gordon Corridor'
p2056
asg8
S'-80.19989'
p2057
sg10
S'GORDON ST AT ARKELL RD'
p2058
sba(i__main__
Stop
p2059
(dp2060
g3
S'43.505161'
p2061
sg5
(lp2062
S'Route21'
p2063
aS'Route16'
p2064
aS'Route Gordon Corridor'
p2065
asg8
S'-80.194351'
p2066
sg10
S'GORDON ST AT CLAIRFIELDS DR'
p2067
sba(i__main__
Stop
p2068
(dp2069
g3
S'43.495554'
p2070
sg5
(lp2071
S'Route21'
p2072
asg8
S'-80.195861'
p2073
sg10
S'BISHOP MACDONELL HIGH SCHOOL'
p2074
sba(i__main__
Stop
p2075
(dp2076
g3
S'43.492751'
p2077
sg5
(lp2078
S'Route21'
p2079
aS'Route16'
p2080
asg8
S'-80.200238'
p2081
sg10
S'LAIRD RD AT CLAIR RD W'
p2082
sba(i__main__
Stop
p2083
(dp2084
g3
S'43.49437'
p2085
sg5
(lp2086
S'Route21'
p2087
aS'Route16'
p2088
asg8
S'-80.207405'
p2089
sg10
S'SOUTHGATE DR AT LAIRD RD'
p2090
sba(i__main__
Stop
p2091
(dp2092
g3
S'43.497763'
p2093
sg5
(lp2094
S'Route21'
p2095
aS'Route16'
p2096
asg8
S'-80.211439'
p2097
sg10
S'125 SOUTHGATE DR'
p2098
sba(i__main__
Stop
p2099
(dp2100
g3
S'43.500192'
p2101
sg5
(lp2102
S'Route21'
p2103
aS'Route16'
p2104
asg8
S'-80.213584'
p2105
sg10
S'180 SOUTHGATE DR'
p2106
sba(i__main__
Stop
p2107
(dp2108
g3
S'43.502246'
p2109
sg5
(lp2110
S'Route21'
p2111
aS'Route16'
p2112
asg8
S'-80.217576'
p2113
sg10
S'310 SOUTHGATE DR'
p2114
sba(i__main__
Stop
p2115
(dp2116
g3
S'43.500098'
p2117
sg5
(lp2118
S'Route21'
p2119
aS'Route16'
p2120
asg8
S'-80.219979'
p2121
sg10
S'450 SOUTHGATE DR'
p2122
sba(i__main__
Stop
p2123
(dp2124
g3
S'43.497763'
p2125
sg5
(lp2126
S'Route21'
p2127
aS'Route16'
p2128
asg8
S'-80.21749'
p2129
sg10
S'525 SOUTHGATE DR'
p2130
sba(i__main__
Stop
p2131
(dp2132
g3
S'43.494526'
p2133
sg5
(lp2134
S'Route21'
p2135
aS'Route16'
p2136
asg8
S'-80.213713'
p2137
sg10
S'595 SOUTHGATE DR'
p2138
sba(i__main__
Stop
p2139
(dp2140
g3
S'43.49297'
p2141
sg5
(lp2142
S'Route21'
p2143
aS'Route16'
p2144
asg8
S'-80.209943'
p2145
sg10
S'679 SOUTHGATE DR'
p2146
sba(i__main__
Stop
p2147
(dp2148
g3
S'43.492192'
p2149
sg5
(lp2150
S'Route21'
p2151
aS'Route16'
p2152
asg8
S'-80.208765'
p2153
sg10
S'SOUTHGATE DR AT CORPORATE RD'
p2154
sba(i__main__
Stop
p2155
(dp2156
g3
S'43.491034'
p2157
sg5
(lp2158
S'Route21'
p2159
aS'Route16'
p2160
asg8
S'-80.207102'
p2161
sg10
S'SOUTHGATE DR AT ADMIRAL PL'
p2162
sba(i__main__
Stop
p2163
(dp2164
g3
S'43.489566'
p2165
sg5
(lp2166
S'Route21'
p2167
aS'Route16'
p2168
asg8
S'-80.203991'
p2169
sg10
S'829 SOUTHGATE DR'
p2170
sba(i__main__
Stop
p2171
(dp2172
g3
S'43.492158'
p2173
sg5
(lp2174
S'Route21'
p2175
aS'Route16'
p2176
asg8
S'-80.200168'
p2177
sg10
S'300 CLAIR (WATER TOWER)'
p2178
sba(i__main__
Stop
p2179
(dp2180
g3
S'43.495285'
p2181
sg5
(lp2182
S'Route21'
p2183
aS'Route16'
p2184
asg8
S'-80.195641'
p2185
sg10
S'BISHOP MACDONELL HIGH SCHOOL'
p2186
sba(i__main__
Stop
p2187
(dp2188
g3
S'43.499368'
p2189
sg5
(lp2190
S'Route21'
p2191
asg8
S'-80.191593'
p2192
sg10
S'GOSLING GDNS AT FOOD BASICS'
p2193
sba(i__main__
Stop
p2194
(dp2195
g3
S'43.501366'
p2196
sg5
(lp2197
S'Route21'
p2198
asg8
S'-80.192967'
p2199
sg10
S'GOSLING GDNS PARK'
p2200
sba(i__main__
Stop
p2201
(dp2202
g3
S'43.503521'
p2203
sg5
(lp2204
S'Route21'
p2205
asg8
S'-80.192967'
p2206
sg10
S'GOSLING GDNS AT CLAIRFIELDS DR W'
p2207
sba(i__main__
Stop
p2208
(dp2209
g3
S'43.505801'
p2210
sg5
(lp2211
S'Route21'
p2212
asg8
S'-80.194376'
p2213
sg10
S'GORDON ST NORTH OF CLAIRFIELDS DR'
p2214
sba(i__main__
Stop
p2215
(dp2216
g3
S'43.508565'
p2217
sg5
(lp2218
S'Route21'
p2219
asg8
S'-80.195517'
p2220
sg10
S'GORDON ST AT LOWES RD'
p2221
sba(i__main__
Stop
p2222
(dp2223
g3
S'43.511755'
p2224
sg5
(lp2225
S'Route21'
p2226
asg8
S'-80.196955'
p2227
sg10
S'GORDON ST AT CONTINUING EDUC'
p2228
sba(i__main__
Stop
p2229
(dp2230
g3
S'43.513988'
p2231
sg5
(lp2232
S'Route21'
p2233
asg8
S'-80.199607'
p2234
sg10
S'GORDON ST AT ARKELL RD'
p2235
sba(i__main__
Stop
p2236
(dp2237
g3
S'43.516628'
p2238
sg5
(lp2239
S'Route21'
p2240
asg8
S'-80.203268'
p2241
sg10
S'GORDON ST AT VALLEY RD'
p2242
sba(i__main__
Stop
p2243
(dp2244
g3
S'43.5185'
p2245
sg5
(lp2246
S'Route21'
p2247
asg8
S'-80.205684'
p2248
sg10
S'GORDON ST AT LANDSDOWN DR'
p2249
sba(i__main__
Stop
p2250
(dp2251
g3
S'43.519667'
p2252
sg5
(lp2253
S'Route21'
p2254
asg8
S'-80.207481'
p2255
sg10
S'GORDON ST AT HARTS LANE'
p2256
sba(i__main__
Stop
p2257
(dp2258
g3
S'43.520911'
p2259
sg5
(lp2260
S'Route21'
p2261
asg8
S'-80.209892'
p2262
sg10
S'1030 GORDON ST'
p2263
sba(i__main__
Stop
p2264
(dp2265
g3
S'43.522721'
p2266
sg5
(lp2267
S'Route21'
p2268
aS'Route1B'
p2269
aS'Route7'
p2270
aS'Route5'
p2271
aS'Route56'
p2272
aS'Route58'
p2273
aS'Route16'
p2274
aS'Route Gordon Corridor'
p2275
asg8
S'-80.213719'
p2276
sg10
S'GORDON ST AT KORTRIGHT RD W'
p2277
sba(i__main__
Stop
p2278
(dp2279
g3
S'43.524266'
p2280
sg5
(lp2281
S'Route21'
p2282
aS'Route1B'
p2283
aS'Route7'
p2284
aS'Route5'
p2285
aS'Route56'
p2286
aS'Route58'
p2287
aS'Route16'
p2288
aS'Route Gordon Corridor'
p2289
asg8
S'-80.216865'
p2290
sg10
S'GORDON ST AT HANDS DR'
p2291
sba(i__main__
Stop
p2292
(dp2293
g3
S'43.525832'
p2294
sg5
(lp2295
S'Route21'
p2296
aS'Route1B'
p2297
aS'Route6'
p2298
aS'Route7'
p2299
aS'Route5'
p2300
aS'Route56'
p2301
aS'Route58'
p2302
aS'Route16'
p2303
aS'Route Gordon Corridor'
p2304
asg8
S'-80.221814'
p2305
sg10
S'GORDON ST AT MONTICELLO CRES'
p2306
sba(i__main__
Stop
p2307
(dp2308
g3
S'43.527039'
p2309
sg5
(lp2310
S'Route21'
p2311
aS'Route5'
p2312
asg8
S'-80.224506'
p2313
sg10
S'UNIVERSITY CENTRE'
p2314
sba(i__main__
Stop
p2315
(dp2316
g3
S'43.530994'
p2317
sg5
(lp2318
S'Route21'
p2319
asg8
S'-80.230666'
p2320
sg10
S'GORDON ST AT VET COLLEGE'
p2321
sba(i__main__
Stop
p2322
(dp2323
g3
S'43.532866'
p2324
sg5
(lp2325
S'Route21'
p2326
asg8
S'-80.233225'
p2327
sg10
S'GORDON ST AT MACDONALD STEWART ART CENTRE'
p2328
sba(i__main__
Stop
p2329
(dp2330
g3
S'43.536989'
p2331
sg5
(lp2332
S'Route21'
p2333
asg8
S'-80.239157'
p2334
sg10
S'GORDON ST AT DORMIE LANE'
p2335
sba(i__main__
Stop
p2336
(dp2337
g3
S'43.538176'
p2338
sg5
(lp2339
S'Route21'
p2340
asg8
S'-80.240871'
p2341
sg10
S'GORDON ST AT WATER ST'
p2342
sba(i__main__
Stop
p2343
(dp2344
g3
S'43.541072'
p2345
sg5
(lp2346
S'Route21'
p2347
asg8
S'-80.245144'
p2348
sg10
S'GORDON ST AT WELLINGTON ST W'
p2349
sba(i__main__
Stop
p2350
(dp2351
g3
S'43.541909'
p2352
sg5
(lp2353
S'Route21'
p2354
asg8
S'-80.247552'
p2355
sg10
S"GORDON AT HARVEY'S"
p2356
sba(i__main__
Stop
p2357
(dp2358
g3
S'43.546261'
p2359
sg5
(lp2360
S'Route21'
p2361
asg8
S'-80.249248'
p2362
sg10
S'GUELPH CENTRAL STATION'
p2363
sba(i__main__
Stop
p2364
(dp2365
g3
S'43.529524'
p2366
sg5
(lp2367
S'Route1A'
p2368
aS'Route1B'
p2369
aS'Route5'
p2370
aS'Route56'
p2371
aS'Route58'
p2372
aS'Route50'
p2373
aS'Route Gordon Corridor'
p2374
asg8
S'-80.224506'
p2375
sg10
S'UNIVERSITY CENTRE'
p2376
sba(i__main__
Stop
p2377
(dp2378
g3
S'43.525457'
p2379
sg5
(lp2380
S'Route1A'
p2381
aS'Route6'
p2382
aS'Route7'
p2383
aS'Route5'
p2384
aS'Route16'
p2385
aS'Route Gordon Corridor'
p2386
asg8
S'-80.221185'
p2387
sg10
S'GORDON ST AT HARVARD RD'
p2388
sba(i__main__
Stop
p2389
(dp2390
g3
S'43.519571'
p2391
sg5
(lp2392
S'Route1A'
p2393
aS'Route5'
p2394
aS'Route16'
p2395
aS'Route Gordon Corridor'
p2396
asg8
S'-80.207956'
p2397
sg10
S'GORDON ST AT HARTS LANE'
p2398
sba(i__main__
Stop
p2399
(dp2400
g3
S'43.518045'
p2401
sg5
(lp2402
S'Route1A'
p2403
aS'Route5'
p2404
aS'Route16'
p2405
aS'Route Gordon Corridor'
p2406
asg8
S'-80.205824'
p2407
sg10
S'1155 GORDON ST'
p2408
sba(i__main__
Stop
p2409
(dp2410
g3
S'43.513692'
p2411
sg5
(lp2412
S'Route1A'
p2413
asg8
S'-80.206781'
p2414
sg10
S'EDINBURGH RD S AT CARRINGTON DR'
p2415
sba(i__main__
Stop
p2416
(dp2417
g3
S'43.511637'
p2418
sg5
(lp2419
S'Route1A'
p2420
asg8
S'-80.209561'
p2421
sg10
S'EDINBURGH RD S AT RICKSON AVE'
p2422
sba(i__main__
Stop
p2423
(dp2424
g3
S'43.511074'
p2425
sg5
(lp2426
S'Route1A'
p2427
asg8
S'-80.213783'
p2428
sg10
S'EDINBURGH RD S AT GINGER CRT'
p2429
sba(i__main__
Stop
p2430
(dp2431
g3
S'43.512621'
p2432
sg5
(lp2433
S'Route1A'
p2434
asg8
S'-80.218822'
p2435
sg10
S'EDINBURGH RD S AT ROGERS RD'
p2436
sba(i__main__
Stop
p2437
(dp2438
g3
S'43.516156'
p2439
sg5
(lp2440
S'Route1A'
p2441
asg8
S'-80.226104'
p2442
sg10
S'EDINBURGH RD S AT KOCH DR'
p2443
sba(i__main__
Stop
p2444
(dp2445
g3
S'43.517591'
p2446
sg5
(lp2447
S'Route1A'
p2448
asg8
S'-80.230666'
p2449
sg10
S'EDINBURGH RD S AT LAURELWOOD CRT'
p2450
sba(i__main__
Stop
p2451
(dp2452
g3
S'43.517495'
p2453
sg5
(lp2454
S'Route1A'
p2455
aS'Route6'
p2456
asg8
S'-80.237179'
p2457
sg10
S'STONE RD W AT STONE ROAD MALL'
p2458
sba(i__main__
Stop
p2459
(dp2460
g3
S'43.515864'
p2461
sg5
(lp2462
S'Route1A'
p2463
asg8
S'-80.239383'
p2464
sg10
S'STONE RD W AT SCOTTSDALE DR'
p2465
sba(i__main__
Stop
p2466
(dp2467
g3
S'43.517581'
p2468
sg5
(lp2469
S'Route1A'
p2470
asg8
S'-80.244796'
p2471
sg10
S'181 JANEFIELD AVE'
p2472
sba(i__main__
Stop
p2473
(dp2474
g3
S'43.519079'
p2475
sg5
(lp2476
S'Route1A'
p2477
asg8
S'-80.246963'
p2478
sg10
S'53 JANEFIELD AVE'
p2479
sba(i__main__
Stop
p2480
(dp2481
g3
S'43.521975'
p2482
sg5
(lp2483
S'Route1A'
p2484
asg8
S'-80.246085'
p2485
sg10
S'264 COLLEGE AVE W'
p2486
sba(i__main__
Stop
p2487
(dp2488
g3
S'43.524248'
p2489
sg5
(lp2490
S'Route1A'
p2491
asg8
S'-80.243014'
p2492
sg10
S'COLLEGE AVE W AT MEADOWCROFT'
p2493
sba(i__main__
Stop
p2494
(dp2495
g3
S'43.529648'
p2496
sg5
(lp2497
S'Route1A'
p2498
asg8
S'-80.235787'
p2499
sg10
S'50 COLLEGE AVE W'
p2500
sba(i__main__
Stop
p2501
(dp2502
g3
S'43.533525'
p2503
sg5
(lp2504
S'Route1A'
p2505
asg8
S'-80.230400'
p2506
sg10
S'COLLEGE AVE E AT MACDONALD ST'
p2507
sba(i__main__
Stop
p2508
(dp2509
g3
S'43.535121'
p2510
sg5
(lp2511
S'Route1A'
p2512
asg8
S'-80.224988'
p2513
sg10
S'EAST RING RD AT DUNDAS LANE'
p2514
sba(i__main__
Stop
p2515
(dp2516
g3
S'43.533228'
p2517
sg5
(lp2518
S'Route1A'
p2519
asg8
S'-80.222342'
p2520
sg10
S'EAST RING RD AT ARBORETUM RD'
p2521
sba(i__main__
Stop
p2522
(dp2523
g3
S'43.533414'
p2524
sg5
(lp2525
S'Route1B'
p2526
asg8
S'-80.222235'
p2527
sg10
S'EAST RING RD AT ARBORETUM RD'
p2528
sba(i__main__
Stop
p2529
(dp2530
g3
S'43.535071'
p2531
sg5
(lp2532
S'Route1B'
p2533
asg8
S'-80.224477'
p2534
sg10
S'EAST RING RD AT DUNDAS LANE'
p2535
sba(i__main__
Stop
p2536
(dp2537
g3
S'43.534115'
p2538
sg5
(lp2539
S'Route1B'
p2540
asg8
S'-80.229942'
p2541
sg10
S'COLLEGE AVE E AT MACDONALD ST'
p2542
sba(i__main__
Stop
p2543
(dp2544
g3
S'43.529727'
p2545
sg5
(lp2546
S'Route1B'
p2547
asg8
S'-80.235897'
p2548
sg10
S'COLLEGE AVE W AT CALEDONIA ST'
p2549
sba(i__main__
Stop
p2550
(dp2551
g3
S'43.525349'
p2552
sg5
(lp2553
S'Route1B'
p2554
asg8
S'-80.241837'
p2555
sg10
S'COLLEGE AVE W AT EDINBURGH RD'
p2556
sba(i__main__
Stop
p2557
(dp2558
g3
S'43.521571'
p2559
sg5
(lp2560
S'Route1B'
p2561
asg8
S'-80.247137'
p2562
sg10
S'COLLEGE AVE W AT CENTENNIAL'
p2563
sba(i__main__
Stop
p2564
(dp2565
g3
S'43.517868'
p2566
sg5
(lp2567
S'Route1B'
p2568
asg8
S'-80.245637'
p2569
sg10
S'129 JANEFIELD AVE'
p2570
sba(i__main__
Stop
p2571
(dp2572
g3
S'43.516872'
p2573
sg5
(lp2574
S'Route1B'
p2575
asg8
S'-80.240944'
p2576
sg10
S'JANEFIELD AVE AT SCOTTSDALE DR'
p2577
sba(i__main__
Stop
p2578
(dp2579
g3
S'43.516543'
p2580
sg5
(lp2581
S'Route1B'
p2582
aS'Route58'
p2583
asg8
S'-80.229338'
p2584
sg10
S'583 EDINBURGH RD S'
p2585
sba(i__main__
Stop
p2586
(dp2587
g3
S'43.515674'
p2588
sg5
(lp2589
S'Route1B'
p2590
aS'Route58'
p2591
asg8
S'-80.223705'
p2592
sg10
S'685 EDINBURGH RD S'
p2593
sba(i__main__
Stop
p2594
(dp2595
g3
S'43.512606'
p2596
sg5
(lp2597
S'Route1B'
p2598
asg8
S'-80.218928'
p2599
sg10
S'777 EDINBURGH RD S'
p2600
sba(i__main__
Stop
p2601
(dp2602
g3
S'43.510979'
p2603
sg5
(lp2604
S'Route1B'
p2605
asg8
S'-80.213604'
p2606
sg10
S'EDINBURGH  RD S AT GINGER CRT'
p2607
sba(i__main__
Stop
p2608
(dp2609
g3
S'43.511550'
p2610
sg5
(lp2611
S'Route1B'
p2612
asg8
S'-80.209314'
p2613
sg10
S'EDINBURGH RD S AT RICKSON AVE'
p2614
sba(i__main__
Stop
p2615
(dp2616
g3
S'43.513666'
p2617
sg5
(lp2618
S'Route1B'
p2619
asg8
S'-80.206367'
p2620
sg10
S'EDINBURGH RD S AT CARRINGTON DR'
p2621
sba(i__main__
Stop
p2622
(dp2623
g3
S'43.516653'
p2624
sg5
(lp2625
S'Route1B'
p2626
aS'Route5'
p2627
aS'Route56'
p2628
aS'Route16'
p2629
aS'Route Gordon Corridor'
p2630
asg8
S'-80.203242'
p2631
sg10
S'GORDON ST AT VALLEY RD'
p2632
sba(i__main__
Stop
p2633
(dp2634
g3
S'43.518854'
p2635
sg5
(lp2636
S'Route1B'
p2637
aS'Route5'
p2638
aS'Route56'
p2639
aS'Route16'
p2640
aS'Route Gordon Corridor'
p2641
asg8
S'-80.205813'
p2642
sg10
S'GORDON ST AT LANDSDOWN DR'
p2643
sba(i__main__
Stop
p2644
(dp2645
g3
S'43.519609'
p2646
sg5
(lp2647
S'Route1B'
p2648
aS'Route5'
p2649
aS'Route56'
p2650
aS'Route16'
p2651
aS'Route Gordon Corridor'
p2652
asg8
S'-80.207455'
p2653
sg10
S'GORDON ST AT HARTS LANE'
p2654
sba(i__main__
Stop
p2655
(dp2656
g3
S'43.520895'
p2657
sg5
(lp2658
S'Route1B'
p2659
aS'Route5'
p2660
aS'Route56'
p2661
aS'Route16'
p2662
aS'Route Gordon Corridor'
p2663
asg8
S'-80.210036'
p2664
sg10
S'941 GORDON ST'
p2665
sba(i__main__
Stop
p2666
(dp2667
g3
S'43.527039'
p2668
sg5
(lp2669
S'Route1B'
p2670
aS'Route6'
p2671
aS'Route7'
p2672
asg8
S'-80.225188'
p2673
sg10
S'GORDON ST AT STONE RD W'
p2674
sba(i__main__
Stop
p2675
(dp2676
g3
S'43.549049'
p2677
sg5
(lp2678
S'Route12'
p2679
aS'Route13'
p2680
asg8
S'-80.250385'
p2681
sg10
S'ERAMOSA RD BRIDGE'
p2682
sba(i__main__
Stop
p2683
(dp2684
g3
S'43.553440'
p2685
sg5
(lp2686
S'Route12'
p2687
asg8
S'-80.250429'
p2688
sg10
S'DELHI ST AT ERAMOSA RD'
p2689
sba(i__main__
Stop
p2690
(dp2691
g3
S'43.555478'
p2692
sg5
(lp2693
S'Route12'
p2694
asg8
S'-80.253263'
p2695
sg10
S'DELHI ST AT GUELPH GENERAL HOSPITAL'
p2696
sba(i__main__
Stop
p2697
(dp2698
g3
S'43.558023'
p2699
sg5
(lp2700
S'Route12'
p2701
asg8
S'-80.256817'
p2702
sg10
S'DELHI ST AT HOMEWOOD HEALTH CENTRE'
p2703
sba(i__main__
Stop
p2704
(dp2705
g3
S'43.559730'
p2706
sg5
(lp2707
S'Route12'
p2708
asg8
S'-80.259149'
p2709
sg10
S'DELHI ST AT EMMA ST'
p2710
sba(i__main__
Stop
p2711
(dp2712
g3
S'43.561982'
p2713
sg5
(lp2714
S'Route12'
p2715
asg8
S'-80.256609'
p2716
sg10
S'EMMA ST AT METCALFE ST'
p2717
sba(i__main__
Stop
p2718
(dp2719
g3
S'43.563510'
p2720
sg5
(lp2721
S'Route12'
p2722
asg8
S'-80.254526'
p2723
sg10
S'EMMA ST AT STEVENSON ST'
p2724
sba(i__main__
Stop
p2725
(dp2726
g3
S'43.566155'
p2727
sg5
(lp2728
S'Route12'
p2729
asg8
S'-80.257454'
p2730
sg10
S'SPEEDVALE AVE E AT STEVENSON ST'
p2731
sba(i__main__
Stop
p2732
(dp2733
g3
S'43.568988'
p2734
sg5
(lp2735
S'Route12'
p2736
asg8
S'-80.253555'
p2737
sg10
S'SPEEDVALE AVE E AT RENFIELD ST'
p2738
sba(i__main__
Stop
p2739
(dp2740
g3
S'43.570197'
p2741
sg5
(lp2742
S'Route12'
p2743
asg8
S'-80.251898'
p2744
sg10
S'SPEEDVALE AVE E AT ACORN PL'
p2745
sba(i__main__
Stop
p2746
(dp2747
g3
S'43.577375'
p2748
sg5
(lp2749
S'Route12'
p2750
asg8
S'-80.260566'
p2751
sg10
S'WOODLAWN RD E AT VICTORIA RD N'
p2752
sba(i__main__
Stop
p2753
(dp2754
g3
S'43.572923'
p2755
sg5
(lp2756
S'Route12'
p2757
asg8
S'-80.260722'
p2758
sg10
S'WINDSOR ST AT KINGSLEY CRT'
p2759
sba(i__main__
Stop
p2760
(dp2761
g3
S'43.570030'
p2762
sg5
(lp2763
S'Route12'
p2764
asg8
S'-80.262589'
p2765
sg10
S'WAVERLY DR AT STEVENSON ST'
p2766
sba(i__main__
Stop
p2767
(dp2768
g3
S'43.568068'
p2769
sg5
(lp2770
S'Route12'
p2771
asg8
S'-80.264664'
p2772
sg10
S'METCALFE ST AT WAVERLEY DR'
p2773
sba(i__main__
Stop
p2774
(dp2775
g3
S'43.565996'
p2776
sg5
(lp2777
S'Route12'
p2778
asg8
S'-80.261803'
p2779
sg10
S'METCALFE ST AT SHAFTESBURY AVE'
p2780
sba(i__main__
Stop
p2781
(dp2782
g3
S'43.564553'
p2783
sg5
(lp2784
S'Route12'
p2785
asg8
S'-80.260110'
p2786
sg10
S'METCALFE ST AT SPEEDVALE  AVE'
p2787
sba(i__main__
Stop
p2788
(dp2789
g3
S'43.563067'
p2790
sg5
(lp2791
S'Route12'
p2792
asg8
S'-80.261976'
p2793
sg10
S'SPEEDVALE AVE AT CLIVE AVE'
p2794
sba(i__main__
Stop
p2795
(dp2796
g3
S'43.561341'
p2797
sg5
(lp2798
S'Route12'
p2799
asg8
S'-80.261642'
p2800
sg10
S'DELHI ST AT PHILLIP AVE'
p2801
sba(i__main__
Stop
p2802
(dp2803
g3
S'43.559753'
p2804
sg5
(lp2805
S'Route12'
p2806
asg8
S'-80.259441'
p2807
sg10
S'DELHI ST AT EMMA ST'
p2808
sba(i__main__
Stop
p2809
(dp2810
g3
S'43.557461'
p2811
sg5
(lp2812
S'Route12'
p2813
asg8
S'-80.256245'
p2814
sg10
S'DELHI ST AT HOMEWOOD HEALTH CENTRE'
p2815
sba(i__main__
Stop
p2816
(dp2817
g3
S'43.555378'
p2818
sg5
(lp2819
S'Route12'
p2820
asg8
S'-80.253359'
p2821
sg10
S'DELHI ST AT SPRING ST'
p2822
sba(i__main__
Stop
p2823
(dp2824
g3
S'43.553174'
p2825
sg5
(lp2826
S'Route12'
p2827
asg8
S'-80.250307'
p2828
sg10
S'DELHI ST AT ERAMOSA RD'
p2829
sba(i__main__
Stop
p2830
(dp2831
g3
S'43.549165'
p2832
sg5
(lp2833
S'Route12'
p2834
aS'Route13'
p2835
asg8
S'-80.250571'
p2836
sg10
S'ERAMOSA RD AT ARTHUR ST'
p2837
sba(i__main__
Stop
p2838
(dp2839
g3
S'43.5290634619'
p2840
sg5
(lp2841
S'Route6'
p2842
asg8
S'-80.2238410411'
p2843
sg10
S'UNIVERSITY CENTRE'
p2844
sba(i__main__
Stop
p2845
(dp2846
g3
S'43.523990'
p2847
sg5
(lp2848
S'Route6'
p2849
asg8
S'-80.223439'
p2850
sg10
S'HARVARD RD AT SHAKESPEARE ARMS'
p2851
sba(i__main__
Stop
p2852
(dp2853
g3
S'43.520793'
p2854
sg5
(lp2855
S'Route6'
p2856
asg8
S'-80.228167'
p2857
sg10
S'HARVARD RD AT PRINCETON PL'
p2858
sba(i__main__
Stop
p2859
(dp2860
g3
S'43.518262'
p2861
sg5
(lp2862
S'Route6'
p2863
asg8
S'-80.228565'
p2864
sg10
S'HARVARD RD AT YOUNGMAN DR'
p2865
sba(i__main__
Stop
p2866
(dp2867
g3
S'43.517457'
p2868
sg5
(lp2869
S'Route6'
p2870
asg8
S'-80.230376'
p2871
sg10
S'EDINBURGH RD AT LAURELWOOD CRT'
p2872
sba(i__main__
Stop
p2873
(dp2874
g3
S'43.514716'
p2875
sg5
(lp2876
S'Route6'
p2877
asg8
S'-80.238481'
p2878
sg10
S'SCOTTSDALE DR AT STONE RD W'
p2879
sba(i__main__
Stop
p2880
(dp2881
g3
S'43.513792'
p2882
sg5
(lp2883
S'Route6'
p2884
asg8
S'-80.237204'
p2885
sg10
S'SCOTTSDALE DR AT COLE RD'
p2886
sba(i__main__
Stop
p2887
(dp2888
g3
S'43.512987'
p2889
sg5
(lp2890
S'Route6'
p2891
asg8
S'-80.235201'
p2892
sg10
S'SCOTTSDALE DR AT IRONWOOD RD'
p2893
sba(i__main__
Stop
p2894
(dp2895
g3
S'43.511151'
p2896
sg5
(lp2897
S'Route6'
p2898
asg8
S'-80.235094'
p2899
sg10
S'IRONWOOD RD AT STEFFLER PARK'
p2900
sba(i__main__
Stop
p2901
(dp2902
g3
S'43.508854'
p2903
sg5
(lp2904
S'Route6'
p2905
asg8
S'-80.232937'
p2906
sg10
S'IRONWOOD RD AT COLE RD'
p2907
sba(i__main__
Stop
p2908
(dp2909
g3
S'43.507108'
p2910
sg5
(lp2911
S'Route6'
p2912
asg8
S'-80.229901'
p2913
sg10
S'IRONWOOD RD AT WOODBOROUGH RD'
p2914
sba(i__main__
Stop
p2915
(dp2916
g3
S'43.505669'
p2917
sg5
(lp2918
S'Route6'
p2919
asg8
S'-80.227176'
p2920
sg10
S'IRONWOOD RD AT HILLDALE CRES'
p2921
sba(i__main__
Stop
p2922
(dp2923
g3
S'43.507460'
p2924
sg5
(lp2925
S'Route6'
p2926
asg8
S'-80.225619'
p2927
sg10
S'IRONWOOD RD AT BROOKHAVEN CRT'
p2928
sba(i__main__
Stop
p2929
(dp2930
g3
S'43.509886'
p2931
sg5
(lp2932
S'Route6'
p2933
asg8
S'-80.227975'
p2934
sg10
S'IRONWOOD RD AT KORTRIGHT RD'
p2935
sba(i__main__
Stop
p2936
(dp2937
g3
S'43.511745'
p2938
sg5
(lp2939
S'Route6'
p2940
asg8
S'-80.230319'
p2941
sg10
S'SCOTTSDALE DR AT STEFFLER DR'
p2942
sba(i__main__
Stop
p2943
(dp2944
g3
S'43.513799'
p2945
sg5
(lp2946
S'Route6'
p2947
asg8
S'-80.236892'
p2948
sg10
S'711 SCOTTSDALE DR'
p2949
sba(i__main__
Stop
p2950
(dp2951
g3
S'43.514732'
p2952
sg5
(lp2953
S'Route6'
p2954
asg8
S'-80.238189'
p2955
sg10
S'632 SCOTTSDALE DR'
p2956
sba(i__main__
Stop
p2957
(dp2958
g3
S'43.517933'
p2959
sg5
(lp2960
S'Route6'
p2961
asg8
S'-80.228173'
p2962
sg10
S'YOUNGMAN DR AT HARVARD RD'
p2963
sba(i__main__
Stop
p2964
(dp2965
g3
S'43.520745'
p2966
sg5
(lp2967
S'Route6'
p2968
asg8
S'-80.228014'
p2969
sg10
S'HARVARD RD AT PRINCETON PL'
p2970
sba(i__main__
Stop
p2971
(dp2972
g3
S'43.522439'
p2973
sg5
(lp2974
S'Route6'
p2975
asg8
S'-80.225757'
p2976
sg10
S'HARVARD RD AT RICKSON AVE'
p2977
sba(i__main__
Stop
p2978
(dp2979
g3
S'43.524268'
p2980
sg5
(lp2981
S'Route6'
p2982
asg8
S'-80.221632'
p2983
sg10
S'35 HARVARD AVE AT PLAZA'
p2984
sba(i__main__
Stop
p2985
(dp2986
g3
S'43.5290001927'
p2987
sg5
(lp2988
S'Route6'
p2989
asg8
S'-80.2237748815'
p2990
sg10
S'UNIVERSITY CENTRE'
p2991
sba(i__main__
Stop
p2992
(dp2993
g3
S'43.5290189503'
p2994
sg5
(lp2995
S'Route7'
p2996
asg8
S'-80.2237676879'
p2997
sg10
S'UNIVERSITY CENTRE'
p2998
sba(i__main__
Stop
p2999
(dp3000
g3
S'43.520139'
p3001
sg5
(lp3002
S'Route7'
p3003
asg8
S'-80.214969'
p3004
sg10
S'KORTRIGHT RD AT YEWHOLME DR'
p3005
sba(i__main__
Stop
p3006
(dp3007
g3
S'43.516957'
p3008
sg5
(lp3009
S'Route7'
p3010
asg8
S'-80.216712'
p3011
sg10
S'KORTRIGHT RD AT RICKSON AVE'
p3012
sba(i__main__
Stop
p3013
(dp3014
g3
S'43.514366'
p3015
sg5
(lp3016
S'Route7'
p3017
asg8
S'-80.220191'
p3018
sg10
S'KORTRIGHT RD AT EDINBURGH RD S'
p3019
sba(i__main__
Stop
p3020
(dp3021
g3
S'43.511157'
p3022
sg5
(lp3023
S'Route7'
p3024
asg8
S'-80.224909'
p3025
sg10
S'KORTRIGHT RD AT HANLON CREEK PARK'
p3026
sba(i__main__
Stop
p3027
(dp3028
g3
S'43.509150'
p3029
sg5
(lp3030
S'Route7'
p3031
asg8
S'-80.230868'
p3032
sg10
S'555 KORTRIGHT RD'
p3033
sba(i__main__
Stop
p3034
(dp3035
g3
S'43.507161'
p3036
sg5
(lp3037
S'Route7'
p3038
asg8
S'-80.233591'
p3039
sg10
S'KORTRIGHT RD AT HANLON RD'
p3040
sba(i__main__
Stop
p3041
(dp3042
g3
S'43.505301'
p3043
sg5
(lp3044
S'Route7'
p3045
asg8
S'-80.237312'
p3046
sg10
S'DOWNEY RD AT WOODLAND GLEN DR'
p3047
sba(i__main__
Stop
p3048
(dp3049
g3
S'43.504418'
p3050
sg5
(lp3051
S'Route7'
p3052
asg8
S'-80.242239'
p3053
sg10
S'NISKA RD OPPOSITE TANAGER DR'
p3054
sba(i__main__
Stop
p3055
(dp3056
g3
S'43.503350'
p3057
sg5
(lp3058
S'Route7'
p3059
asg8
S'-80.246134'
p3060
sg10
S'PTARMIGAN DR AT NISKA RD'
p3061
sba(i__main__
Stop
p3062
(dp3063
g3
S'43.499663'
p3064
sg5
(lp3065
S'Route7'
p3066
asg8
S'-80.244210'
p3067
sg10
S'PTARMIGAN DR AT PHEASANT RUN DR'
p3068
sba(i__main__
Stop
p3069
(dp3070
g3
S'43.499782'
p3071
sg5
(lp3072
S'Route7'
p3073
asg8
S'-80.237947'
p3074
sg10
S'PTARMIGAN DR AT DOWNEY RD'
p3075
sba(i__main__
Stop
p3076
(dp3077
g3
S'43.502415'
p3078
sg5
(lp3079
S'Route7'
p3080
asg8
S'-80.239046'
p3081
sg10
S'DOWNEY RD AT HAZELWOOD DR'
p3082
sba(i__main__
Stop
p3083
(dp3084
g3
S'43.504842'
p3085
sg5
(lp3086
S'Route7'
p3087
asg8
S'-80.237961'
p3088
sg10
S'DOWNEY RD AT NISKA RD'
p3089
sba(i__main__
Stop
p3090
(dp3091
g3
S'43.506931'
p3092
sg5
(lp3093
S'Route7'
p3094
asg8
S'-80.233511'
p3095
sg10
S'KORTRIGHT RD AT HANLON RD'
p3096
sba(i__main__
Stop
p3097
(dp3098
g3
S'43.508986'
p3099
sg5
(lp3100
S'Route7'
p3101
asg8
S'-80.230697'
p3102
sg10
S'KORTRIGHT RD AT PLAZA'
p3103
sba(i__main__
Stop
p3104
(dp3105
g3
S'43.511345'
p3106
sg5
(lp3107
S'Route7'
p3108
asg8
S'-80.223941'
p3109
sg10
S'KORTRIGHT RD AT HANLON CREEK PARK'
p3110
sba(i__main__
Stop
p3111
(dp3112
g3
S'43.514312'
p3113
sg5
(lp3114
S'Route7'
p3115
aS'Route58'
p3116
asg8
S'-80.219867'
p3117
sg10
S'KORTRIGHT RD AT EDINBURGH RD S'
p3118
sba(i__main__
Stop
p3119
(dp3120
g3
S'43.516883'
p3121
sg5
(lp3122
S'Route7'
p3123
aS'Route58'
p3124
asg8
S'-80.216423'
p3125
sg10
S'KORTRIGHT RD AT RICKSON AVE'
p3126
sba(i__main__
Stop
p3127
(dp3128
g3
S'43.521627'
p3129
sg5
(lp3130
S'Route7'
p3131
aS'Route58'
p3132
asg8
S'-80.212938'
p3133
sg10
S'KORTRIGHT RD OPPOSITE YEWHOLME DR'
p3134
sba(i__main__
Stop
p3135
(dp3136
g3
S'43.5289652518'
p3137
sg5
(lp3138
S'Route7'
p3139
asg8
S'-80.2237220979'
p3140
sg10
S'UNIVERSITY CENTRE'
p3141
sba(i__main__
Stop
p3142
(dp3143
g3
S'43.555657'
p3144
sg5
(lp3145
S'Route13'
p3146
asg8
S'-80.249466'
p3147
sg10
S'ERAMOSA RD AT ST CATHARINES ST'
p3148
sba(i__main__
Stop
p3149
(dp3150
g3
S'43.556495'
p3151
sg5
(lp3152
S'Route13'
p3153
asg8
S'-80.248788'
p3154
sg10
S'METCALFE ST AT ERAMOSA RD'
p3155
sba(i__main__
Stop
p3156
(dp3157
g3
S'43.554757'
p3158
sg5
(lp3159
S'Route13'
p3160
asg8
S'-80.246360'
p3161
sg10
S'METCALFE ST AT LEMON ST'
p3162
sba(i__main__
Stop
p3163
(dp3164
g3
S'43.553027'
p3165
sg5
(lp3166
S'Route13'
p3167
asg8
S'-80.243956'
p3168
sg10
S'METCALFE ST AT PALMER ST'
p3169
sba(i__main__
Stop
p3170
(dp3171
g3
S'43.551686'
p3172
sg5
(lp3173
S'Route13'
p3174
asg8
S'-80.242077'
p3175
sg10
S'METCALFE ST AT GRANGE ST'
p3176
sba(i__main__
Stop
p3177
(dp3178
g3
S'43.552399'
p3179
sg5
(lp3180
S'Route13'
p3181
asg8
S'-80.240832'
p3182
sg10
S'GRANGE ST AT CLARA ST'
p3183
sba(i__main__
Stop
p3184
(dp3185
g3
S'43.553898'
p3186
sg5
(lp3187
S'Route13'
p3188
asg8
S'-80.238831'
p3189
sg10
S'GRANGE ST AT LOUISA ST'
p3190
sba(i__main__
Stop
p3191
(dp3192
g3
S'43.554622'
p3193
sg5
(lp3194
S'Route13'
p3195
asg8
S'-80.237833'
p3196
sg10
S'GRANGE ST AT STEVENSON ST'
p3197
sba(i__main__
Stop
p3198
(dp3199
g3
S'43.558258'
p3200
sg5
(lp3201
S'Route13'
p3202
asg8
S'-80.240005'
p3203
sg10
S'CASSINO AVE AT WILLIAM ST'
p3204
sba(i__main__
Stop
p3205
(dp3206
g3
S'43.561453'
p3207
sg5
(lp3208
S'Route13'
p3209
asg8
S'-80.235804'
p3210
sg10
S'CASSINO AVE AT PALERMO CRES'
p3211
sba(i__main__
Stop
p3212
(dp3213
g3
S'43.562886'
p3214
sg5
(lp3215
S'Route13'
p3216
asg8
S'-80.234699'
p3217
sg10
S'CASSINO AVE AT HADATI RD'
p3218
sba(i__main__
Stop
p3219
(dp3220
g3
S'43.564485'
p3221
sg5
(lp3222
S'Route13'
p3223
asg8
S'-80.237757'
p3224
sg10
S'HADATI RD AT YEATS CRT'
p3225
sba(i__main__
Stop
p3226
(dp3227
g3
S'43.563892'
p3228
sg5
(lp3229
S'Route13'
p3230
asg8
S'-80.240402'
p3231
sg10
S'HADATI RD AT VICTORIA RD N'
p3232
sba(i__main__
Stop
p3233
(dp3234
g3
S'43.565338'
p3235
sg5
(lp3236
S'Route13'
p3237
aS'Route3A'
p3238
asg8
S'-80.241265'
p3239
sg10
S'EASTVIEW RD AT GLENBURNIE DR'
p3240
sba(i__main__
Stop
p3241
(dp3242
g3
S'43.567369'
p3243
sg5
(lp3244
S'Route13'
p3245
aS'Route3A'
p3246
asg8
S'-80.238478'
p3247
sg10
S'EASTVIEW RD AT MOUNTFORD DR'
p3248
sba(i__main__
Stop
p3249
(dp3250
g3
S'43.568800'
p3251
sg5
(lp3252
S'Route13'
p3253
asg8
S'-80.231242'
p3254
sg10
S'STARWOOD DR AT WATT ST'
p3255
sba(i__main__
Stop
p3256
(dp3257
g3
S'43.567812'
p3258
sg5
(lp3259
S'Route13'
p3260
asg8
S'-80.232014'
p3261
sg10
S'WATT ST AT AUDEN RD'
p3262
sba(i__main__
Stop
p3263
(dp3264
g3
S'43.568895'
p3265
sg5
(lp3266
S'Route13'
p3267
asg8
S'-80.234823'
p3268
sg10
S'AUDEN RD AT EASTVIEW RD'
p3269
sba(i__main__
Stop
p3270
(dp3271
g3
S'43.567445'
p3272
sg5
(lp3273
S'Route13'
p3274
asg8
S'-80.248003'
p3275
sg10
S'ERAMOSA RD AT ORCHARD CRES'
p3276
sba(i__main__
Stop
p3277
(dp3278
g3
S'43.562369'
p3279
sg5
(lp3280
S'Route13'
p3281
asg8
S'-80.248754'
p3282
sg10
S'ERAMOSA RD AT MEYER DR'
p3283
sba(i__main__
Stop
p3284
(dp3285
g3
S'43.559599'
p3286
sg5
(lp3287
S'Route13'
p3288
asg8
S'-80.249172'
p3289
sg10
S'ERAMOSA RD AT STEVENSON ST'
p3290
sba(i__main__
Stop
p3291
(dp3292
g3
S'43.556180'
p3293
sg5
(lp3294
S'Route13'
p3295
asg8
S'-80.249666'
p3296
sg10
S'ERAMOSA RD AT METCALFE ST'
p3297
sba(i__main__
Stop
p3298
(dp3299
g3
S'43.547576'
p3300
sg5
(lp3301
S'Route3A'
p3302
asg8
S'-80.266172'
p3303
sg10
S'WESTMOUNT RD AT LOURDES'
p3304
sba(i__main__
Stop
p3305
(dp3306
g3
S'43.550057'
p3307
sg5
(lp3308
S'Route3A'
p3309
asg8
S'-80.269504'
p3310
sg10
S'WESTMOUNT RD AT DIVISION ST'
p3311
sba(i__main__
Stop
p3312
(dp3313
g3
S'43.548167'
p3314
sg5
(lp3315
S'Route3A'
p3316
asg8
S'-80.266982'
p3317
sg10
S"ST JOSEPH'S HEALTH CENTRE"
p3318
sba(i__main__
Stop
p3319
(dp3320
g3
S'43.550132'
p3321
sg5
(lp3322
S'Route3A'
p3323
asg8
S'-80.269632'
p3324
sg10
S'WESTMOUNT RD AT SPEEDVALE AVE W'
p3325
sba(i__main__
Stop
p3326
(dp3327
g3
S'43.553416'
p3328
sg5
(lp3329
S'Route3A'
p3330
asg8
S'-80.274223'
p3331
sg10
S'KATHLEEN ST AT JUNE AVE'
p3332
sba(i__main__
Stop
p3333
(dp3334
g3
S'43.556149'
p3335
sg5
(lp3336
S'Route3A'
p3337
asg8
S'-80.273176'
p3338
sg10
S'BAILEY AVE AT NICKLIN RD'
p3339
sba(i__main__
Stop
p3340
(dp3341
g3
S'43.560098'
p3342
sg5
(lp3343
S'Route3A'
p3344
asg8
S'-80.282287'
p3345
sg10
S'NICKLIN RD AT WOODLAWN RD'
p3346
sba(i__main__
Stop
p3347
(dp3348
g3
S'43.556747'
p3349
sg5
(lp3350
S'Route3A'
p3351
asg8
S'-80.277169'
p3352
sg10
S'SMART CENTRE GUELPH'
p3353
sba(i__main__
Stop
p3354
(dp3355
g3
S'43.565031'
p3356
sg5
(lp3357
S'Route3A'
p3358
asg8
S'-80.280726'
p3359
sg10
S'21 WOODLAWN RD E'
p3360
sba(i__main__
Stop
p3361
(dp3362
g3
S'43.568502'
p3363
sg5
(lp3364
S'Route3A'
p3365
asg8
S'-80.272502'
p3366
sg10
S'WOODLAWN RD E AT OPPOSITE SENIORS CENTRE'
p3367
sba(i__main__
Stop
p3368
(dp3369
g3
S'43.569297'
p3370
sg5
(lp3371
S'Route3A'
p3372
asg8
S'-80.271413'
p3373
sg10
S'WOODLAWN RD E AT FAIRWAY LANE'
p3374
sba(i__main__
Stop
p3375
(dp3376
g3
S'43.572001'
p3377
sg5
(lp3378
S'Route3A'
p3379
asg8
S'-80.267661'
p3380
sg10
S'WOODLAWN RD E AT GOLFVIEW DR'
p3381
sba(i__main__
Stop
p3382
(dp3383
g3
S'43.574348'
p3384
sg5
(lp3385
S'Route3A'
p3386
asg8
S'-80.264362'
p3387
sg10
S'INVERNESS DR AT GLENBROOK DR'
p3388
sba(i__main__
Stop
p3389
(dp3390
g3
S'43.576641'
p3391
sg5
(lp3392
S'Route3A'
p3393
asg8
S'-80.263157'
p3394
sg10
S'INVERNESS DR AT SIMMONDS DR'
p3395
sba(i__main__
Stop
p3396
(dp3397
g3
S'43.579419'
p3398
sg5
(lp3399
S'Route3A'
p3400
asg8
S'-80.267052'
p3401
sg10
S'VICTORIA RD N AT TRILLIUM WALDORF'
p3402
sba(i__main__
Stop
p3403
(dp3404
g3
S'43.580587'
p3405
sg5
(lp3406
S'Route3A'
p3407
asg8
S'-80.263922'
p3408
sg10
S'VICTORIA RD N AT WOODLAWN RD E'
p3409
sba(i__main__
Stop
p3410
(dp3411
g3
S'43.578088'
p3412
sg5
(lp3413
S'Route3A'
p3414
asg8
S'-80.260540'
p3415
sg10
S'VICTORIA RD N AT DELTA ST'
p3416
sba(i__main__
Stop
p3417
(dp3418
g3
S'43.574215'
p3419
sg5
(lp3420
S'Route3A'
p3421
asg8
S'-80.255175'
p3422
sg10
S'VICTORIA RD N AT SPEEDVALE AVE E'
p3423
sba(i__main__
Stop
p3424
(dp3425
g3
S'43.57071'
p3426
sg5
(lp3427
S'Route3A'
p3428
asg8
S'-80.250349'
p3429
sg10
S'VICTORIA RD N AT ERAMOSA RD'
p3430
sba(i__main__
Stop
p3431
(dp3432
g3
S'43.569232'
p3433
sg5
(lp3434
S'Route3A'
p3435
asg8
S'-80.248344'
p3436
sg10
S"VICTORIA RD N AT ST PAUL'S CHURCH"
p3437
sba(i__main__
Stop
p3438
(dp3439
g3
S'43.566676'
p3440
sg5
(lp3441
S'Route3A'
p3442
asg8
S'-80.244711'
p3443
sg10
S'EASTVIEW RD AT GLENBURNIE DR'
p3444
sba(i__main__
Stop
p3445
(dp3446
g3
S'43.572509'
p3447
sg5
(lp3448
S'Route3A'
p3449
asg8
S'-80.231266'
p3450
sg10
S'EASTVIEW RD AT SUMMIT RIDGE DR'
p3451
sba(i__main__
Stop
p3452
(dp3453
g3
S'43.570255'
p3454
sg5
(lp3455
S'Route3A'
p3456
asg8
S'-80.234530'
p3457
sg10
S'WATSON PKWY N AT GRANGE RD'
p3458
sba(i__main__
Stop
p3459
(dp3460
g3
S'43.573466'
p3461
sg5
(lp3462
S'Route3A'
p3463
asg8
S'-80.217970'
p3464
sg10
S'WATSON PKWY N AT FLEMING RD'
p3465
sba(i__main__
Stop
p3466
(dp3467
g3
S'43.570527'
p3468
sg5
(lp3469
S'Route3A'
p3470
asg8
S'-80.213770'
p3471
sg10
S'WATSON PKWY N AT LIBRARY'
p3472
sba(i__main__
Stop
p3473
(dp3474
g3
S'43.56144'
p3475
sg5
(lp3476
S'Route3A'
p3477
asg8
S'-80.210956'
p3478
sg10
S'YORK RD AT YORKHAVEN PL'
p3479
sba(i__main__
Stop
p3480
(dp3481
g3
S'43.557049'
p3482
sg5
(lp3483
S'Route3A'
p3484
asg8
S'-80.217005'
p3485
sg10
S'YORK RD AT ROYAL CITY JAYCEES PARK'
p3486
sba(i__main__
Stop
p3487
(dp3488
g3
S'43.554908'
p3489
sg5
(lp3490
S'Route3A'
p3491
asg8
S'-80.219940'
p3492
sg10
S'YORK RD AT BEAUMONT CRES'
p3493
sba(i__main__
Stop
p3494
(dp3495
g3
S'43.551612'
p3496
sg5
(lp3497
S'Route3A'
p3498
asg8
S'-80.223573'
p3499
sg10
S'VICTORIA RD AT YORK RD'
p3500
sba(i__main__
Stop
p3501
(dp3502
g3
S'43.539442'
p3503
sg5
(lp3504
S'Route3A'
p3505
asg8
S'-80.207876'
p3506
sg10
S'STONE RD E AT VICTORIA RD S'
p3507
sba(i__main__
Stop
p3508
(dp3509
g3
S'43.533696'
p3510
sg5
(lp3511
S'Route3A'
p3512
asg8
S'-80.215470'
p3513
sg10
S'STONE RD E AT ARBOUR MEDICAL CENTRE'
p3514
sba(i__main__
Stop
p3515
(dp3516
g3
S'43.530139'
p3517
sg5
(lp3518
S'Route3A'
p3519
asg8
S'-80.225670'
p3520
sg10
S'UNIVERSITY CENTRE'
p3521
sba(i__main__
Stop
p3522
(dp3523
g3
S'43.541833'
p3524
sg5
(lp3525
S'Route5'
p3526
asg8
S'-80.248111'
p3527
sg10
S'GORDON ST AT NOTTINGHAM ST'
p3528
sba(i__main__
Stop
p3529
(dp3530
g3
S'43.514317'
p3531
sg5
(lp3532
S'Route5'
p3533
asg8
S'-80.198502'
p3534
sg10
S'ARKELL RD AT GORDON ST'
p3535
sba(i__main__
Stop
p3536
(dp3537
g3
S'43.516206'
p3538
sg5
(lp3539
S'Route5'
p3540
asg8
S'-80.196032'
p3541
sg10
S'ARKELL RD AT RIDGEWAY  AVE'
p3542
sba(i__main__
Stop
p3543
(dp3544
g3
S'43.517618'
p3545
sg5
(lp3546
S'Route5'
p3547
asg8
S'-80.190957'
p3548
sg10
S'SUMMERFIELD DR AT AMSTERDAM CRES'
p3549
sba(i__main__
Stop
p3550
(dp3551
g3
S'43.515529'
p3552
sg5
(lp3553
S'Route5'
p3554
asg8
S'-80.188602'
p3555
sg10
S'SUMMERFIELD DR AT CUMMINGS CRT'
p3556
sba(i__main__
Stop
p3557
(dp3558
g3
S'43.516626'
p3559
sg5
(lp3560
S'Route5'
p3561
asg8
S'-80.184407'
p3562
sg10
S'SUMMERFIELD DR AT BRIGHT LANE'
p3563
sba(i__main__
Stop
p3564
(dp3565
g3
S'43.519835'
p3566
sg5
(lp3567
S'Route5'
p3568
asg8
S'-80.179976'
p3569
sg10
S'SUMMERFIELD DR AT VICTORIA RD S'
p3570
sba(i__main__
Stop
p3571
(dp3572
g3
S'43.515015'
p3573
sg5
(lp3574
S'Route5'
p3575
aS'Route56'
p3576
asg8
S'-80.175363'
p3577
sg10
S'FREDERICK DR AT WATERFORD DR'
p3578
sba(i__main__
Stop
p3579
(dp3580
g3
S'43.511743'
p3581
sg5
(lp3582
S'Route5'
p3583
asg8
S'-80.177101'
p3584
sg10
S'GOODWIN DR AT RAY CRES'
p3585
sba(i__main__
Stop
p3586
(dp3587
g3
S'43.508079'
p3588
sg5
(lp3589
S'Route5'
p3590
asg8
S'-80.181977'
p3591
sg10
S'GOODWIN DR AT ORIN REID PARK'
p3592
sba(i__main__
Stop
p3593
(dp3594
g3
S'43.505911'
p3595
sg5
(lp3596
S'Route5'
p3597
asg8
S'-80.184901'
p3598
sg10
S'GOODWIN DR AT SINCLAIR ST'
p3599
sba(i__main__
Stop
p3600
(dp3601
g3
S'43.504005'
p3602
sg5
(lp3603
S'Route5'
p3604
asg8
S'-80.186972'
p3605
sg10
S'GOODWIN DR AT DARLING CRES'
p3606
sba(i__main__
Stop
p3607
(dp3608
g3
S'43.503149'
p3609
sg5
(lp3610
S'Route5'
p3611
asg8
S'-80.188012'
p3612
sg10
S'GOODWIN DR AT EUGENE DR'
p3613
sba(i__main__
Stop
p3614
(dp3615
g3
S'43.504066'
p3616
sg5
(lp3617
S'Route5'
p3618
asg8
S'-80.190228'
p3619
sg10
S'FARLEY DR AT PORTER DR'
p3620
sba(i__main__
Stop
p3621
(dp3622
g3
S'43.508404'
p3623
sg5
(lp3624
S'Route5'
p3625
asg8
S'-80.192302'
p3626
sg10
S'PINE RIDGE DR AT PERIWINKLE WAY'
p3627
sba(i__main__
Stop
p3628
(dp3629
g3
S'43.509005'
p3630
sg5
(lp3631
S'Route5'
p3632
aS'Route Gordon Corridor'
p3633
asg8
S'-80.195565'
p3634
sg10
S'GORDON ST AT LOWES RD'
p3635
sba(i__main__
Stop
p3636
(dp3637
g3
S'43.511767'
p3638
sg5
(lp3639
S'Route5'
p3640
aS'Route16'
p3641
aS'Route Gordon Corridor'
p3642
asg8
S'-80.196885'
p3643
sg10
S'GORDON ST AT CONTINUING EDUCATION'
p3644
sba(i__main__
Stop
p3645
(dp3646
g3
S'43.514027'
p3647
sg5
(lp3648
S'Route5'
p3649
aS'Route56'
p3650
aS'Route16'
p3651
aS'Route Gordon Corridor'
p3652
asg8
S'-80.199648'
p3653
sg10
S'GORDON ST AT ARKELL RD'
p3654
sba(i__main__
Stop
p3655
(dp3656
g3
S'43.541072'
p3657
sg5
(lp3658
S'Route5'
p3659
asg8
S'-80.245274'
p3660
sg10
S'GORDON ST AT WELLINGTON ST'
p3661
sba(i__main__
Stop
p3662
(dp3663
g3
S'43.541884'
p3664
sg5
(lp3665
S'Route5'
p3666
asg8
S'-80.247619'
p3667
sg10
S"GORDON ST AT HARVEY'S"
p3668
sba(i__main__
Stop
p3669
(dp3670
g3
S'43.543346'
p3671
sg5
(lp3672
S'Route5'
p3673
aS'Route8'
p3674
aS'Route9'
p3675
asg8
S'-80.249107'
p3676
sg10
S'CITY HALL'
p3677
sba(i__main__
Stop
p3678
(dp3679
g3
S'43.530139124615'
p3680
sg5
(lp3681
S'Route15'
p3682
asg8
S'-80.22567'
p3683
sg10
S'UNIVERSITY CENTRE'
p3684
sba(i__main__
Stop
p3685
(dp3686
g3
S'43.527478'
p3687
sg5
(lp3688
S'Route15'
p3689
asg8
S'-80.226352'
p3690
sg10
S'GORDON ST AT STONE RD W'
p3691
sba(i__main__
Stop
p3692
(dp3693
g3
S'43.526145'
p3694
sg5
(lp3695
S'Route15'
p3696
aS'Route58'
p3697
aS'Route50'
p3698
asg8
S'-80.225538'
p3699
sg10
S'STONE RD W AT GORDON ST'
p3700
sba(i__main__
Stop
p3701
(dp3702
g3
S'43.524050'
p3703
sg5
(lp3704
S'Route15'
p3705
aS'Route58'
p3706
aS'Route50'
p3707
asg8
S'-80.228457'
p3708
sg10
S'STONE RD W AT FIRE HALL'
p3709
sba(i__main__
Stop
p3710
(dp3711
g3
S'43.522019'
p3712
sg5
(lp3713
S'Route15'
p3714
aS'Route58'
p3715
aS'Route50'
p3716
asg8
S'-80.231231'
p3717
sg10
S'STONE RD W AT ZELLERS'
p3718
sba(i__main__
Stop
p3719
(dp3720
g3
S'43.517856'
p3721
sg5
(lp3722
S'Route15'
p3723
aS'Route50'
p3724
asg8
S'-80.236974'
p3725
sg10
S'STONE RD W AT STONE RD MALL'
p3726
sba(i__main__
Stop
p3727
(dp3728
g3
S'43.516019'
p3729
sg5
(lp3730
S'Route15'
p3731
aS'Route50'
p3732
asg8
S'-80.239549'
p3733
sg10
S'STONE RD W AT SCOTTSDALE DR'
p3734
sba(i__main__
Stop
p3735
(dp3736
g3
S'43.509914'
p3737
sg5
(lp3738
S'Route15'
p3739
asg8
S'-80.247323'
p3740
sg10
S'STONE RD W AT WOODLAND GLEN DR'
p3741
sba(i__main__
Stop
p3742
(dp3743
g3
S'43.510561'
p3744
sg5
(lp3745
S'Route15'
p3746
asg8
S'-80.250192'
p3747
sg10
S'COLLEGE AVE W AT FLANDERS RD'
p3748
sba(i__main__
Stop
p3749
(dp3750
g3
S'43.511738'
p3751
sg5
(lp3752
S'Route15'
p3753
asg8
S'-80.252804'
p3754
sg10
S'COLLEGE AVE W AT CONROY CRES'
p3755
sba(i__main__
Stop
p3756
(dp3757
g3
S'43.513969'
p3758
sg5
(lp3759
S'Route15'
p3760
asg8
S'-80.256203'
p3761
sg10
S'COLLEGE AVE W AT ARGYLE DR'
p3762
sba(i__main__
Stop
p3763
(dp3764
g3
S'43.513974835'
p3765
sg5
(lp3766
S'Route15'
p3767
asg8
S'-80.2562593432'
p3768
sg10
S'506 COLLEGE AVE W'
p3769
sba(i__main__
Stop
p3770
(dp3771
g3
S'43.519598'
p3772
sg5
(lp3773
S'Route15'
p3774
asg8
S'-80.249119'
p3775
sg10
S'COLLEGE AVE W EAST OF HANLON'
p3776
sba(i__main__
Stop
p3777
(dp3778
g3
S'43.517968'
p3779
sg5
(lp3780
S'Route15'
p3781
aS'Route8'
p3782
asg8
S'-80.245711'
p3783
sg10
S'129 JANEFIELD AVE'
p3784
sba(i__main__
Stop
p3785
(dp3786
g3
S'43.516792'
p3787
sg5
(lp3788
S'Route15'
p3789
aS'Route8'
p3790
asg8
S'-80.240925'
p3791
sg10
S'JANEFIELD AVE AT SCOTTSDALE DR'
p3792
sba(i__main__
Stop
p3793
(dp3794
g3
S'43.520977257153'
p3795
sg5
(lp3796
S'Route15'
p3797
asg8
S'-80.23997'
p3798
sg10
S'SCOTTSDALE DR AT WILSONVIEW AVE'
p3799
sba(i__main__
Stop
p3800
(dp3801
g3
S'43.522155872961'
p3802
sg5
(lp3803
S'Route15'
p3804
asg8
S'-80.23865'
p3805
sg10
S'WILSONVIEW AVE'
p3806
sba(i__main__
Stop
p3807
(dp3808
g3
S'43.521444038444'
p3809
sg5
(lp3810
S'Route15'
p3811
asg8
S'-80.2361'
p3812
sg10
S'EDINBURGH RD AT CHANCELLORS WAY'
p3813
sba(i__main__
Stop
p3814
(dp3815
g3
S'43.521656033755'
p3816
sg5
(lp3817
S'Route15'
p3818
asg8
S'-80.23126'
p3819
sg10
S'STONE RD OPPOSITE ZELLERS'
p3820
sba(i__main__
Stop
p3821
(dp3822
g3
S'43.524668620547'
p3823
sg5
(lp3824
S'Route15'
p3825
asg8
S'-80.22719'
p3826
sg10
S'95 STONE RD W'
p3827
sba(i__main__
Stop
p3828
(dp3829
g3
S'43.5298048358'
p3830
sg5
(lp3831
S'Route15'
p3832
asg8
S'-80.2248992018'
p3833
sg10
S'UNIVERSITY CENTRE'
p3834
sba(i__main__
Stop
p3835
(dp3836
g3
S'43.543617'
p3837
sg5
(lp3838
S'Route8'
p3839
asg8
S'-80.246479'
p3840
sg10
S'WYNDHAM ST AT FARQUHAR ST'
p3841
sba(i__main__
Stop
p3842
(dp3843
g3
S'43.5382652'
p3844
sg5
(lp3845
S'Route8'
p3846
asg8
S'-80.24134308'
p3847
sg10
S'GORDON ST AT WATER ST'
p3848
sba(i__main__
Stop
p3849
(dp3850
g3
S'43.536163'
p3851
sg5
(lp3852
S'Route8'
p3853
asg8
S'-80.245144'
p3854
sg10
S'WATER ST AT MCCRAE BLVD'
p3855
sba(i__main__
Stop
p3856
(dp3857
g3
S'43.535130'
p3858
sg5
(lp3859
S'Route8'
p3860
asg8
S'-80.246552'
p3861
sg10
S'WATER ST AT MAPLE ST'
p3862
sba(i__main__
Stop
p3863
(dp3864
g3
S'43.531946'
p3865
sg5
(lp3866
S'Route8'
p3867
asg8
S'-80.243610'
p3868
sg10
S'MAPLE ST AT FOREST ST'
p3869
sba(i__main__
Stop
p3870
(dp3871
g3
S'43.530027'
p3872
sg5
(lp3873
S'Route8'
p3874
asg8
S'-80.246148'
p3875
sg10
S'FOREST ST AT PARK'
p3876
sba(i__main__
Stop
p3877
(dp3878
g3
S'43.527403'
p3879
sg5
(lp3880
S'Route8'
p3881
asg8
S'-80.244524'
p3882
sg10
S'EDINBURGH RD S AT MAPLEWOOD DR'
p3883
sba(i__main__
Stop
p3884
(dp3885
g3
S'43.525295'
p3886
sg5
(lp3887
S'Route8'
p3888
asg8
S'-80.241992'
p3889
sg10
S'COLLEGE AVE W AT EDINBURGH RD'
p3890
sba(i__main__
Stop
p3891
(dp3892
g3
S'43.521545'
p3893
sg5
(lp3894
S'Route8'
p3895
asg8
S'-80.247091'
p3896
sg10
S'COLLEGE AVE W AT CENTENNIAL'
p3897
sba(i__main__
Stop
p3898
(dp3899
g3
S'43.52097726'
p3900
sg5
(lp3901
S'Route8'
p3902
asg8
S'-80.23997247'
p3903
sg10
S'SCOTTSDALE DR AT WILSONVIEW AVE'
p3904
sba(i__main__
Stop
p3905
(dp3906
g3
S'43.521683'
p3907
sg5
(lp3908
S'Route8'
p3909
asg8
S'-80.241866'
p3910
sg10
S'220 SCOTTSDALE DR'
p3911
sba(i__main__
Stop
p3912
(dp3913
g3
S'43.52328'
p3914
sg5
(lp3915
S'Route8'
p3916
asg8
S'-80.243572'
p3917
sg10
S'SCOTTSDALE DR AT COLLEGE AVE W'
p3918
sba(i__main__
Stop
p3919
(dp3920
g3
S'43.524313'
p3921
sg5
(lp3922
S'Route8'
p3923
asg8
S'-80.243011'
p3924
sg10
S'COLLEGE AVE W AT MEADOWCROFT'
p3925
sba(i__main__
Stop
p3926
(dp3927
g3
S'43.526849'
p3928
sg5
(lp3929
S'Route8'
p3930
asg8
S'-80.243384'
p3931
sg10
S'EDINBURGH RD S AT FLORAL DR'
p3932
sba(i__main__
Stop
p3933
(dp3934
g3
S'43.528513'
p3935
sg5
(lp3936
S'Route8'
p3937
asg8
S'-80.245737'
p3938
sg10
S'EDINBURGH RD S AT LOCKYER RD'
p3939
sba(i__main__
Stop
p3940
(dp3941
g3
S'43.529964'
p3942
sg5
(lp3943
S'Route8'
p3944
asg8
S'-80.247792'
p3945
sg10
S'EDINBURGH RD S AT MUNICIPAL ST'
p3946
sba(i__main__
Stop
p3947
(dp3948
g3
S'43.532367'
p3949
sg5
(lp3950
S'Route8'
p3951
asg8
S'-80.251159'
p3952
sg10
S'EDINBURGH RD S AT HONEY CRES'
p3953
sba(i__main__
Stop
p3954
(dp3955
g3
S'43.535829'
p3956
sg5
(lp3957
S'Route8'
p3958
asg8
S'-80.253496'
p3959
sg10
S'BRISTOL ST AT MCGEE ST'
p3960
sba(i__main__
Stop
p3961
(dp3962
g3
S'43.537985'
p3963
sg5
(lp3964
S'Route8'
p3965
asg8
S'-80.252973'
p3966
sg10
S'YORKSHIRE ST S AT WATERLOO AVE'
p3967
sba(i__main__
Stop
p3968
(dp3969
g3
S'43.539053'
p3970
sg5
(lp3971
S'Route8'
p3972
aS'Route9'
p3973
asg8
S'-80.252146'
p3974
sg10
S'WATERLOO AVE AT GLASGOW ST'
p3975
sba(i__main__
Stop
p3976
(dp3977
g3
S'43.541228'
p3978
sg5
(lp3979
S'Route8'
p3980
aS'Route9'
p3981
asg8
S'-80.249835'
p3982
sg10
S'WATERLOO AVE AT NORFOLK ST'
p3983
sba(i__main__
Stop
p3984
(dp3985
g3
S'43.541423'
p3986
sg5
(lp3987
S'Route9'
p3988
asg8
S'-80.249839'
p3989
sg10
S'3 WATERLOO AVE'
p3990
sba(i__main__
Stop
p3991
(dp3992
g3
S'43.538905'
p3993
sg5
(lp3994
S'Route9'
p3995
asg8
S'-80.252519'
p3996
sg10
S'WATERLOO AVE AT GLASGOW ST'
p3997
sba(i__main__
Stop
p3998
(dp3999
g3
S'43.536579'
p4000
sg5
(lp4001
S'Route9'
p4002
asg8
S'-80.254987'
p4003
sg10
S'WATERLOO AVE AT YORKSHIRE STS'
p4004
sba(i__main__
Stop
p4005
(dp4006
g3
S'43.535168'
p4007
sg5
(lp4008
S'Route9'
p4009
asg8
S'-80.256495'
p4010
sg10
S'225 WATERLOO AVE'
p4011
sba(i__main__
Stop
p4012
(dp4013
g3
S'43.531039'
p4014
sg5
(lp4015
S'Route9'
p4016
asg8
S'-80.260912'
p4017
sg10
S'WATERLOO AVE AT BEACHWOOD AVE'
p4018
sba(i__main__
Stop
p4019
(dp4020
g3
S'43.531329'
p4021
sg5
(lp4022
S'Route9'
p4023
asg8
S'-80.260792'
p4024
sg10
S'387 WATERLOO AVE'
p4025
sba(i__main__
Stop
p4026
(dp4027
g3
S'43.522844'
p4028
sg5
(lp4029
S'Route9'
p4030
asg8
S'-80.267664'
p4031
sg10
S'IMPERIAL RD S AT WELLINGTON ST N'
p4032
sba(i__main__
Stop
p4033
(dp4034
g3
S'43.523257'
p4035
sg5
(lp4036
S'Route9'
p4037
asg8
S'-80.275745'
p4038
sg10
S'IMPERIAL RD S AT STEPHANIE DR'
p4039
sba(i__main__
Stop
p4040
(dp4041
g3
S'43.525287'
p4042
sg5
(lp4043
S'Route9'
p4044
asg8
S'-80.279945'
p4045
sg10
S'IMPERIAL RD S AT DEERPATH DR'
p4046
sba(i__main__
Stop
p4047
(dp4048
g3
S'43.525522'
p4049
sg5
(lp4050
S'Route9'
p4051
asg8
S'-80.284368'
p4052
sg10
S'IMPERIAL RD S  AT PAISLEY ST'
p4053
sba(i__main__
Stop
p4054
(dp4055
g3
S'43.522527'
p4056
sg5
(lp4057
S'Route9'
p4058
asg8
S'-80.288064'
p4059
sg10
S'PAISLEY RD AT ZEHRS'
p4060
sba(i__main__
Stop
p4061
(dp4062
g3
S'43.522384'
p4063
sg5
(lp4064
S'Route9'
p4065
asg8
S'-80.281820'
p4066
sg10
S'STEPHANIE DR AT HOLLYBERRY PL'
p4067
sba(i__main__
Stop
p4068
(dp4069
g3
S'43.522953'
p4070
sg5
(lp4071
S'Route9'
p4072
asg8
S'-80.276464'
p4073
sg10
S'STEPHANIE DR AT IMPERIAL RD'
p4074
sba(i__main__
Stop
p4075
(dp4076
g3
S'43.522296'
p4077
sg5
(lp4078
S'Route9'
p4079
asg8
S'-80.273921'
p4080
sg10
S'IMPERIAL RD AT WEST ACRES DR'
p4081
sba(i__main__
Stop
p4082
(dp4083
g3
S'43.520752'
p4084
sg5
(lp4085
S'Route9'
p4086
asg8
S'-80.269868'
p4087
sg10
S'IMPERIAL RD S AT TIM HORTONS'
p4088
sba(i__main__
Stop
p4089
(dp4090
g3
S'43.522873'
p4091
sg5
(lp4092
S'Route9'
p4093
asg8
S'-80.267234'
p4094
sg10
S'WELLINGTON ST W AT WASTEWATER TREATMENT PLANT'
p4095
sba(i__main__
Stop
p4096
(dp4097
g3
S'43.531117'
p4098
sg5
(lp4099
S'Route9'
p4100
asg8
S'-80.260625'
p4101
sg10
S'364 WATERLOO RD'
p4102
sba(i__main__
Stop
p4103
(dp4104
g3
S'43.533616'
p4105
sg5
(lp4106
S'Route9'
p4107
asg8
S'-80.257973'
p4108
sg10
S'WATERLOO AVE AT ST ARNAUD ST'
p4109
sba(i__main__
Stop
p4110
(dp4111
g3
S'43.536488'
p4112
sg5
(lp4113
S'Route9'
p4114
asg8
S'-80.254882'
p4115
sg10
S'180 WATERLOO AVE'
p4116
sba(i__main__
Stop
p4117
(dp4118
g3
S'43.533012'
p4119
sg5
(lp4120
S'Route56'
p4121
asg8
S'-80.197783'
p4122
sg10
S'1035 VICTORIA'
p4123
sba(i__main__
Stop
p4124
(dp4125
g3
S'43.523694'
p4126
sg5
(lp4127
S'Route56'
p4128
asg8
S'-80.1851'
p4129
sg10
S'VICTORIA AT ARKELL'
p4130
sba(i__main__
Stop
p4131
(dp4132
g3
S'43.519637'
p4133
sg5
(lp4134
S'Route56'
p4135
asg8
S'-80.179537'
p4136
sg10
S'VICTORIA @ SUMMERFIELD'
p4137
sba(i__main__
Stop
p4138
(dp4139
g3
S'43.517774'
p4140
sg5
(lp4141
S'Route56'
p4142
asg8
S'-80.176994'
p4143
sg10
S'VICTORIA RD S AT KATEMORE DR'
p4144
sba(i__main__
Stop
p4145
(dp4146
g3
S'43.516704'
p4147
sg5
(lp4148
S'Route56'
p4149
asg8
S'-80.180326'
p4150
sg10
S'264 COLONIAL'
p4151
sba(i__main__
Stop
p4152
(dp4153
g3
S'43.518902'
p4154
sg5
(lp4155
S'Route56'
p4156
asg8
S'-80.183523'
p4157
sg10
S'COLONIAL NORTH OF MARSH'
p4158
sba(i__main__
Stop
p4159
(dp4160
g3
S'43.520837'
p4161
sg5
(lp4162
S'Route56'
p4163
asg8
S'-80.186929'
p4164
sg10
S'COLONIAL NORTH OF BARD BV'
p4165
sba(i__main__
Stop
p4166
(dp4167
g3
S'43.5300871'
p4168
sg5
(lp4169
S'Route57'
p4170
asg8
S'-80.22514689'
p4171
sg10
S'UNIVERSITY DEP'
p4172
sba(i__main__
Stop
p4173
(dp4174
g3
S'43.52734677'
p4175
sg5
(lp4176
S'Route57'
p4177
asg8
S'-80.22615966'
p4178
sg10
S'GORDON ST AT STONE RD W'
p4179
sba(i__main__
Stop
p4180
(dp4181
g3
S'43.52544175'
p4182
sg5
(lp4183
S'Route57'
p4184
asg8
S'-80.22118988'
p4185
sg10
S'GORDON ST AT HARVARD RD'
p4186
sba(i__main__
Stop
p4187
(dp4188
g3
S'43.52403582'
p4189
sg5
(lp4190
S'Route57'
p4191
asg8
S'-80.2228434'
p4192
sg10
S'HARVARD RD AT SHAKESPEARE ARMS'
p4193
sba(i__main__
Stop
p4194
(dp4195
g3
S'43.5204771'
p4196
sg5
(lp4197
S'Route57'
p4198
asg8
S'-80.22858985'
p4199
sg10
S'HARVARD RD AT PRINCETON PL'
p4200
sba(i__main__
Stop
p4201
(dp4202
g3
S'43.51812986'
p4203
sg5
(lp4204
S'Route57'
p4205
asg8
S'-80.22837459'
p4206
sg10
S'HARVARD RD AT YOUNGMAN DR'
p4207
sba(i__main__
Stop
p4208
(dp4209
g3
S'43.51523937'
p4210
sg5
(lp4211
S'Route57'
p4212
asg8
S'-80.23184091'
p4213
sg10
S'IRONWOOD RD AT REID CRT'
p4214
sba(i__main__
Stop
p4215
(dp4216
g3
S'43.51304815'
p4217
sg5
(lp4218
S'Route57'
p4219
asg8
S'-80.23445164'
p4220
sg10
S'711 SCOTTSDALE DR'
p4221
sba(i__main__
Stop
p4222
(dp4223
g3
S'43.51324305'
p4224
sg5
(lp4225
S'Route57'
p4226
asg8
S'-80.2355045'
p4227
sg10
S'632 SCOTTSDALE DR'
p4228
sba(i__main__
Stop
p4229
(dp4230
g3
S'43.51475093'
p4231
sg5
(lp4232
S'Route57'
p4233
asg8
S'-80.23819991'
p4234
sg10
S'SCOTTSDALE @ STONE'
p4235
sba(i__main__
Stop
p4236
(dp4237
g3
S'43.51614704'
p4238
sg5
(lp4239
S'Route57'
p4240
asg8
S'-80.2385857'
p4241
sg10
S'372 STONE RD W'
p4242
sba(i__main__
Stop
p4243
(dp4244
g3
S'43.51758919'
p4245
sg5
(lp4246
S'Route57'
p4247
asg8
S'-80.23664118'
p4248
sg10
S'STONE RD W AT EDINBURGH RD S'
p4249
sba(i__main__
Stop
p4250
(dp4251
g3
S'43.51946083'
p4252
sg5
(lp4253
S'Route57'
p4254
asg8
S'-80.23418163'
p4255
sg10
S'STONE RD OPPOSITE ZELLERS'
p4256
sba(i__main__
Stop
p4257
(dp4258
g3
S'43.52163401'
p4259
sg5
(lp4260
S'Route57'
p4261
asg8
S'-80.2312634'
p4262
sg10
S'95 STONE RD W'
p4263
sba(i__main__
Stop
p4264
(dp4265
g3
S'43.52467'
p4266
sg5
(lp4267
S'Route57'
p4268
asg8
S'-80.22718783'
p4269
sg10
S'UNIVERSITY ARR'
p4270
sba(i__main__
Stop
p4271
(dp4272
g3
S'43.52097726'
p4273
sg5
(lp4274
S'Route50'
p4275
asg8
S'-80.23997'
p4276
sg10
S'SCOTTSDALE DR AT WILSONVIEW AVE'
p4277
sba(i__main__
Stop
p4278
(dp4279
g3
S'43.52215587'
p4280
sg5
(lp4281
S'Route50'
p4282
asg8
S'-80.23865'
p4283
sg10
S'WILSONVIEW AVE'
p4284
sba(i__main__
Stop
p4285
(dp4286
g3
S'43.52144404'
p4287
sg5
(lp4288
S'Route50'
p4289
asg8
S'-80.2361'
p4290
sg10
S'EDINBURGH RD AT CHANCELLORS WAY'
p4291
sba(i__main__
Stop
p4292
(dp4293
g3
S'43.52165603'
p4294
sg5
(lp4295
S'Route50'
p4296
asg8
S'-80.23126'
p4297
sg10
S'STONE RD OPPOSITE ZELLERS'
p4298
sba(i__main__
Stop
p4299
(dp4300
g3
S'43.52466862'
p4301
sg5
(lp4302
S'Route50'
p4303
asg8
S'-80.22719'
p4304
sg10
S'95 STONE RD W'
p4305
sba(i__main__
Stop
p4306
(dp4307
g3
S'43.53013912'
p4308
sg5
(lp4309
S'Route50'
p4310
asg8
S'-80.22567'
p4311
sg10
S'UNIVERSITY CENTRE'
p4312
sba(i__main__
Stop
p4313
(dp4314
g3
S'43.538302'
p4315
sg5
(lp4316
S'Route16'
p4317
asg8
S'-80.241373'
p4318
sg10
S'GORDON ST AT WATER ST'
p4319
sba(i__main__
Stop
p4320
(dp4321
g3
S'43.511734'
p4322
sg5
(lp4323
S'Route16'
p4324
aS'Route Gordon Corridor'
p4325
asg8
S'-80.197178'
p4326
sg10
S'1417 GORDON ST'
p4327
sba(i__main__
Stop
p4328
(dp4329
g3
S'43.508884'
p4330
sg5
(lp4331
S'Route16'
p4332
aS'Route Gordon Corridor'
p4333
asg8
S'-80.19581'
p4334
sg10
S'GORDON ST AT LOWES RD'
p4335
sba(i__main__
Stop
p4336
(dp4337
g3
S'43.503778'
p4338
sg5
(lp4339
S'Route16'
p4340
asg8
S'-80.195952'
p4341
sg10
S'25 CLAIRFIELDS DR'
p4342
sba(i__main__
Stop
p4343
(dp4344
g3
S'43.498568'
p4345
sg5
(lp4346
S'Route16'
p4347
asg8
S'-80.199409'
p4348
sg10
S'OPPOSITE 116 CLAIRFIELDS DR'
p4349
sba(i__main__
Stop
p4350
(dp4351
g3
S'43.495645'
p4352
sg5
(lp4353
S'Route16'
p4354
asg8
S'-80.196711'
p4355
sg10
S'CLAIRFIELDS DR AT BOULDER CR'
p4356
sba(i__main__
Stop
p4357
(dp4358
g3
S'43.499106'
p4359
sg5
(lp4360
S'Route16'
p4361
aS'Route Gordon Corridor'
p4362
asg8
S'-80.191290'
p4363
sg10
S'GOSLING GARDENS AT CLAIR RD W'
p4364
sba(i__main__
Stop
p4365
(dp4366
g3
S'43.501367'
p4367
sg5
(lp4368
S'Route16'
p4369
aS'Route Gordon Corridor'
p4370
asg8
S'-80.192958'
p4371
sg10
S'GOSLING GARDEN PARK'
p4372
sba(i__main__
Stop
p4373
(dp4374
g3
S'43.502542'
p4375
sg5
(lp4376
S'Route16'
p4377
aS'Route Gordon Corridor'
p4378
asg8
S'-80.194578'
p4379
sg10
S'GOSLING GARDEN AT CLAIRFIELDS DR W'
p4380
sba(i__main__
Stop
p4381
(dp4382
g3
S'43.506090'
p4383
sg5
(lp4384
S'Route16'
p4385
aS'Route Gordon Corridor'
p4386
asg8
S'-80.194374'
p4387
sg10
S'GORDON ST AT WESTMINSTER WOODS'
p4388
sba(i__main__
Stop
p4389
(dp4390
g3
S'43.508962'
p4391
sg5
(lp4392
S'Route16'
p4393
asg8
S'-80.19556'
p4394
sg10
S'GORDON ST AT LOWES RD'
p4395
sba(i__main__
Stop
p4396
(dp4397
g3
S'43.527335'
p4398
sg5
(lp4399
S'Route16'
p4400
asg8
S'-80.225692'
p4401
sg10
S'GORDON ST AT SOUTH RING RD'
p4402
sba(i__main__
Stop
p4403
(dp4404
g3
S'43.527055'
p4405
sg5
(lp4406
S'Route Gordon Corridor'
p4407
asg8
S'-80.225258'
p4408
sg10
S'GORDON ST AT SOUTH RING RD E'
p4409
sba.