(lp0
(i__main__
Stop
p1
(dp2
S'lat'
p3
S'43.545180'
p4
sS'routes'
p5
(lp6
S'2A'
p7
aS'Route2B'
p8
aS'Route3B'
p9
aS'Route10'
p10
aS'Route11'
p11
aS'Route20'
p12
aS'Route12'
p13
aS'Route13'
p14
aS'Route3A'
p15
aS'Route5'
p16
aS'Route8'
p17
aS'Route9'
p18
aS'Route56'
p19
aS'Route16'
p20
asS'lon'
p21
S'-80.246050'
p22
sS'names'
p23
(lp24
S'Guelph Central Station.'
p25
aS'Guelph Central Station'
p26
aS'University Arr'
p27
asba(i__main__
Stop
p28
(dp29
g3
S'43.540815'
p30
sg5
(lp31
S'2A'
p32
aS'Route3B'
p33
aS'Route5'
p34
asg21
S'-80.245214'
p35
sg23
(lp36
S'KFC on Wellington St.'
p37
aS'Gordon St. at Wellington St.'
p38
asba(i__main__
Stop
p39
(dp40
g3
S'43.53833'
p41
sg5
(lp42
S'2A'
p43
aS'Route3B'
p44
aS'Route5'
p45
asg21
S'-80.245214'
p46
sg23
(lp47
S'Gordon St. at Water St.'
p48
asba(i__main__
Stop
p49
(dp50
g3
S'43.537154'
p51
sg5
(lp52
S'2A'
p53
aS'Route3B'
p54
aS'Route5'
p55
aS'Route16'
p56
asg21
S'-80.239813'
p57
sg23
(lp58
S'Gordon St. at Forbes Ave.'
p59
asba(i__main__
Stop
p60
(dp61
g3
S'43.534009'
p62
sg5
(lp63
S'2A'
p64
aS'Route3B'
p65
aS'Route5'
p66
aS'Route16'
p67
asg21
S'-80.235469'
p68
sg23
(lp69
S'Gordon St. at Dean Ave.'
p70
asba(i__main__
Stop
p71
(dp72
g3
S'43.531512'
p73
sg5
(lp74
S'2A'
p75
aS'Route3B'
p76
aS'Route21'
p77
aS'Route5'
p78
aS'Route16'
p79
asg21
S'-80.231928'
p80
sg23
(lp81
S'Gordon St. at College Ave.'
p82
aS'Gordon St. at College Ave. W.'
p83
asba(i__main__
Stop
p84
(dp85
g3
S'43.529922'
p86
sg5
(lp87
S'2A'
p88
aS'Route3B'
p89
aS'Route Gordon Corridor'
p90
asg21
S'-80.225029'
p91
sg23
(lp92
S'University Centre'
p93
aS'University Dep.'
p94
asba(i__main__
Stop
p95
(dp96
g3
S'43.520363'
p97
sg5
(lp98
S'2A'
p99
aS'Route15'
p100
aS'Route50'
p101
asg21
S'-80.233352'
p102
sg23
(lp103
S'Stone Rd. W. at Edinburgh Rd. S.'
p104
aS'Stone Rd. W. Edinburgh Rd. S.'
p105
asba(i__main__
Stop
p106
(dp107
g3
S'43.518846'
p108
sg5
(lp109
S'2A'
p110
aS'Route15'
p111
aS'Route8'
p112
aS'Route50'
p113
asg21
S'-80.239222'
p114
sg23
(lp115
S'Stone Rd. W. at Stone Rd Mall'
p116
aS'Stone Road Mall'
p117
aS'Stone Rd Mall'
p118
asba(i__main__
Stop
p119
(dp120
g3
S'43.522836'
p121
sg5
(lp122
S'2A'
p123
aS'Route9'
p124
asg21
S'-80.267662'
p125
sg23
(lp126
S'659 Wellington St. W.'
p127
aS'659 Wellington St. N.'
p128
asba(i__main__
Stop
p129
(dp130
g3
S'43.517730'
p131
sg5
(lp132
S'2A'
p133
asg21
S'-80.270448'
p134
sg23
(lp135
S'Fife Rd. at Wellington St. W.'
p136
asba(i__main__
Stop
p137
(dp138
g3
S'43.515674'
p139
sg5
(lp140
S'2A'
p141
asg21
S'-80.273254'
p142
sg23
(lp143
S'Fife Rd. at Gateway Dr.'
p144
asba(i__main__
Stop
p145
(dp146
g3
S'43.513766'
p147
sg5
(lp148
S'2A'
p149
asg21
S'-80.275861'
p150
sg23
(lp151
S'Fife Rd. at Deerfield Pl.'
p152
asba(i__main__
Stop
p153
(dp154
g3
S'43.516248'
p155
sg5
(lp156
S'2A'
p157
asg21
S'-80.278614'
p158
sg23
(lp159
S'Elmira Rd. at West Acres Dr.'
p160
asba(i__main__
Stop
p161
(dp162
g3
S'43.518995'
p163
sg5
(lp164
S'2A'
p165
asg21
S'-80.282143'
p166
sg23
(lp167
S'254 Elmira Rd.'
p168
asba(i__main__
Stop
p169
(dp170
g3
S'43.521123'
p171
sg5
(lp172
S'2A'
p173
asg21
S'-80.287336'
p174
sg23
(lp175
S'Elmira Rd. at Stephanie Dr.'
p176
asba(i__main__
Stop
p177
(dp178
g3
S'43.522818'
p179
sg5
(lp180
S'2A'
p181
asg21
S'-80.291611'
p182
sg23
(lp183
S'Elmira Rd. at Zehrs'
p184
asba(i__main__
Stop
p185
(dp186
g3
S'43.523519'
p187
sg5
(lp188
S'2A'
p189
asg21
S'-80.293107'
p190
sg23
(lp191
S'Elmira Rd. at West End Community Centre'
p192
asba(i__main__
Stop
p193
(dp194
g3
S'43.527343'
p195
sg5
(lp196
S'2A'
p197
asg21
S'-80.296881'
p198
sg23
(lp199
S'Willow Rd. at Flaherty Dr.'
p200
asba(i__main__
Stop
p201
(dp202
g3
S'43.528815'
p203
sg5
(lp204
S'2A'
p205
asg21
S'-80.292010'
p206
sg23
(lp207
S'Imperial Rd. N. at Willow Rd.'
p208
asba(i__main__
Stop
p209
(dp210
g3
S'43.531740'
p211
sg5
(lp212
S'2A'
p213
asg21
S'-80.294166'
p214
sg23
(lp215
S'Imperial Rd. N. at Dunhill Cres.'
p216
asba(i__main__
Stop
p217
(dp218
g3
S'43.535013'
p219
sg5
(lp220
S'2A'
p221
asg21
S'-80.294655'
p222
sg23
(lp223
S'Imperial Rd. N. at Westwood Rd.'
p224
asba(i__main__
Stop
p225
(dp226
g3
S'43.537331'
p227
sg5
(lp228
S'2A'
p229
asg21
S'-80.297226'
p230
sg23
(lp231
S'Imperial Rd. N. at Speedvale Ave. W.'
p232
asba(i__main__
Stop
p233
(dp234
g3
S'43.539986'
p235
sg5
(lp236
S'2A'
p237
asg21
S'-80.294035'
p238
sg23
(lp239
S'ARC Industries'
p240
asba(i__main__
Stop
p241
(dp242
g3
S'43.543038'
p243
sg5
(lp244
S'2A'
p245
asg21
S'-80.298273'
p246
sg23
(lp247
S'Royal Rd. at Massey Rd. (Guelph Tool)'
p248
asba(i__main__
Stop
p249
(dp250
g3
S'43.540892'
p251
sg5
(lp252
S'2A'
p253
asg21
S'-80.301824'
p254
sg23
(lp255
S'Massey Rd. at Imperial Rd.'
p256
asba(i__main__
Stop
p257
(dp258
g3
S'43.543610'
p259
sg5
(lp260
S'2A'
p261
asg21
S'-80.305658'
p262
sg23
(lp263
S'Imperial Rd. N. at Woodlawn Rd. W.'
p264
asba(i__main__
Stop
p265
(dp266
g3
S'43.545962'
p267
sg5
(lp268
S'2A'
p269
asg21
S'-80.303449'
p270
sg23
(lp271
S'Woodlawn Rd. W. at Royal Rd.'
p272
asba(i__main__
Stop
p273
(dp274
g3
S'43.548807'
p275
sg5
(lp276
S'2A'
p277
asg21
S'-80.299496'
p278
sg23
(lp279
S'Woodlawn Rd. W. at Regal Rd.'
p280
asba(i__main__
Stop
p281
(dp282
g3
S'43.551565'
p283
sg5
(lp284
S'2A'
p285
asg21
S'-80.295489'
p286
sg23
(lp287
S'Woodlawn Rd. W. at Silvercreek Pkwy N'
p288
asba(i__main__
Stop
p289
(dp290
g3
S'43.556114'
p291
sg5
(lp292
S'2A'
p293
asg21
S'-80.289684'
p294
sg23
(lp295
S'Woodlawn Rd. W. at Dawson Rd.'
p296
asba(i__main__
Stop
p297
(dp298
g3
S'43.558558'
p299
sg5
(lp300
S'2A'
p301
asg21
S'-80.286155'
p302
sg23
(lp303
S'Woodlawn Rd. W. at Edinburgh Rd. N.'
p304
asba(i__main__
Stop
p305
(dp306
g3
S'43.560592'
p307
sg5
(lp308
S'2A'
p309
asg21
S'-80.283493'
p310
sg23
(lp311
S'Woodlawn Rd. W. at Nicklin Rd.'
p312
asba(i__main__
Stop
p313
(dp314
g3
S'43.564044'
p315
sg5
(lp316
S'2A'
p317
asg21
S'-80.281632'
p318
sg23
(lp319
S'Smart Centre Guelph'
p320
asba(i__main__
Stop
p321
(dp322
g3
S'43.562030'
p323
sg5
(lp324
S'2A'
p325
asg21
S'-80.273414'
p326
sg23
(lp327
S'Woolwich St. at Marilyn Dr.'
p328
asba(i__main__
Stop
p329
(dp330
g3
S'43.559760'
p331
sg5
(lp332
S'2A'
p333
asg21
S'-80.270265'
p334
sg23
(lp335
S'Woolwich St. at Evergreen'
p336
asba(i__main__
Stop
p337
(dp338
g3
S'43.556809'
p339
sg5
(lp340
S'2A'
p341
asg21
S'-80.266247'
p342
sg23
(lp343
S'Woolwich St. at Mac Ave.'
p344
asba(i__main__
Stop
p345
(dp346
g3
S'43.552521'
p347
sg5
(lp348
S'2A'
p349
asg21
S'-80.260325'
p350
sg23
(lp351
S'Woolwich St. at Tiffany St.'
p352
asba(i__main__
Stop
p353
(dp354
g3
S'43.549780'
p355
sg5
(lp356
S'2A'
p357
asg21
S'-80.256575'
p358
sg23
(lp359
S'Woolwich St. at London Rd.'
p360
asba(i__main__
Stop
p361
(dp362
g3
S'43.548027'
p363
sg5
(lp364
S'2A'
p365
aS'Route3B'
p366
asg21
S'-80.25168'
p367
sg23
(lp368
S'160 Woolwich'
p369
aS'160 Woolwich.'
p370
asba(i__main__
Stop
p371
(dp372
g3
S'43.545578'
p373
sg5
(lp374
S'2A'
p375
aS'Route3B'
p376
aS'Route10'
p377
aS'Route11'
p378
aS'Route20'
p379
aS'Route12'
p380
aS'Route13'
p381
asg21
S'-80.249017'
p382
sg23
(lp383
S'Wyndham at IF Shoe Store'
p384
aS"St George's Square IF Shoe store"
p385
aS"St. George's Square IF Shoe Store."
p386
asba(i__main__
Stop
p387
(dp388
g3
S'43.546441'
p389
sg5
(lp390
S'Route2B'
p391
aS'Route12'
p392
aS'Route13'
p393
aS'Route3A'
p394
asg21
S'-80.249537'
p395
sg23
(lp396
S'Wyndham St. at Bank of Nova Scotia'
p397
asba(i__main__
Stop
p398
(dp399
g3
S'43.548158'
p400
sg5
(lp401
S'Route2B'
p402
aS'Route3A'
p403
asg21
S'-80.251279'
p404
sg23
(lp405
S'Woolwich St. at Cardigan St.'
p406
aS'Suffolk St. at Norfolk St.'
p407
asba(i__main__
Stop
p408
(dp409
g3
S'43.548768'
p410
sg5
(lp411
S'Route2B'
p412
aS'Route20'
p413
asg21
S'-80.254949'
p414
sg23
(lp415
S'Woolwich St. at Norwich St.'
p416
aS'Woolwich St. at Norwich St. E.'
p417
asba(i__main__
Stop
p418
(dp419
g3
S'43.550097'
p420
sg5
(lp421
S'Route2B'
p422
asg21
S'-80.256667'
p423
sg23
(lp424
S'Woolwich St. at London Rd.'
p425
asba(i__main__
Stop
p426
(dp427
g3
S'43.551876'
p428
sg5
(lp429
S'Route2B'
p430
asg21
S'-80.259149'
p431
sg23
(lp432
S'Woolwich St. at Kerr St.'
p433
asba(i__main__
Stop
p434
(dp435
g3
S'43.553105'
p436
sg5
(lp437
S'Route2B'
p438
asg21
S'-80.260808'
p439
sg23
(lp440
S'Woolwich St. at Powell St.'
p441
asba(i__main__
Stop
p442
(dp443
g3
S'43.555942'
p444
sg5
(lp445
S'Route2B'
p446
asg21
S'-80.264759'
p447
sg23
(lp448
S'Woolwich St. at Earl St.'
p449
asba(i__main__
Stop
p450
(dp451
g3
S'43.558046'
p452
sg5
(lp453
S'Route2B'
p454
asg21
S'-80.267588'
p455
sg23
(lp456
S'Woolwich St. at Speedvale Ave.'
p457
asba(i__main__
Stop
p458
(dp459
g3
S'43.560206'
p460
sg5
(lp461
S'Route2B'
p462
asg21
S'-80.270552'
p463
sg23
(lp464
S'Woolwich St. at Evergreen'
p465
asba(i__main__
Stop
p466
(dp467
g3
S'43.561971'
p468
sg5
(lp469
S'Route2B'
p470
asg21
S'-80.272989'
p471
sg23
(lp472
S'Woolwich St. at Marilyn Dr.'
p473
asba(i__main__
Stop
p474
(dp475
g3
S'43.564940'
p476
sg5
(lp477
S'Route2B'
p478
asg21
S'-80.279664'
p479
sg23
(lp480
S'Smart Centre Guelph'
p481
asba(i__main__
Stop
p482
(dp483
g3
S'43.561001'
p484
sg5
(lp485
S'Route2B'
p486
asg21
S'-80.283145'
p487
sg23
(lp488
S'Woodlawn Rd. W. at Nicklin Rd.'
p489
asba(i__main__
Stop
p490
(dp491
g3
S'43.558487'
p492
sg5
(lp493
S'Route2B'
p494
asg21
S'-80.286658'
p495
sg23
(lp496
S'Woodlawn Rd. W. at Edinburgh Rd. N.'
p497
asba(i__main__
Stop
p498
(dp499
g3
S'43.556826'
p500
sg5
(lp501
S'Route2B'
p502
asg21
S'-80.288946'
p503
sg23
(lp504
S'Woodlawn Rd. W. at Dawson Rd.'
p505
asba(i__main__
Stop
p506
(dp507
g3
S'43.554156'
p508
sg5
(lp509
S'Route2B'
p510
asg21
S'-80.292659'
p511
sg23
(lp512
S'Woodlawn Rd. W. at Arrow Rd.'
p513
asba(i__main__
Stop
p514
(dp515
g3
S'43.551719'
p516
sg5
(lp517
S'Route2B'
p518
asg21
S'-80.295956'
p519
sg23
(lp520
S'Woodlawn Rd. W. at Silvercreek Pkwy. N.'
p521
asba(i__main__
Stop
p522
(dp523
g3
S'43.548709'
p524
sg5
(lp525
S'Route2B'
p526
asg21
S'-80.300078'
p527
sg23
(lp528
S'Woodlawn Rd. W. at Regal Rd.'
p529
asba(i__main__
Stop
p530
(dp531
g3
S'43.546404'
p532
sg5
(lp533
S'Route2B'
p534
asg21
S'-80.303239'
p535
sg23
(lp536
S'Woodlawn Rd. W. at Royal Rd.'
p537
asba(i__main__
Stop
p538
(dp539
g3
S'43.543469'
p540
sg5
(lp541
S'Route2B'
p542
asg21
S'-80.305876'
p543
sg23
(lp544
S'Imperial Rd. N. at Woodlawn Rd. W.'
p545
asba(i__main__
Stop
p546
(dp547
g3
S'43.540880'
p548
sg5
(lp549
S'Route2B'
p550
asg21
S'-80.301154'
p551
sg23
(lp552
S'Massey Rd. at Imperial Rd. N.'
p553
asba(i__main__
Stop
p554
(dp555
g3
S'43.542591'
p556
sg5
(lp557
S'Route2B'
p558
asg21
S'-80.298386'
p559
sg23
(lp560
S'Royal Rd. at Massey Rd.'
p561
asba(i__main__
Stop
p562
(dp563
g3
S'43.539916'
p564
sg5
(lp565
S'Route2B'
p566
asg21
S'-80.294588'
p567
sg23
(lp568
S'Royal at ARC Industries'
p569
asba(i__main__
Stop
p570
(dp571
g3
S'43.536579'
p572
sg5
(lp573
S'Route2B'
p574
asg21
S'-80.296369'
p575
sg23
(lp576
S'Imperial Rd. N. at Speedvale Ave. W.'
p577
asba(i__main__
Stop
p578
(dp579
g3
S'43.534097297637125'
p580
sg5
(lp581
S'Route2B'
p582
asg21
S'-80.294730'
p583
sg23
(lp584
S'Imperial Rd. N. at Thornhill Dr.'
p585
asba(i__main__
Stop
p586
(dp587
g3
S'43.530773'
p588
sg5
(lp589
S'Route2B'
p590
asg21
S'-80.294209'
p591
sg23
(lp592
S'Imperial Rd. N. at Kipling Ave.'
p593
asba(i__main__
Stop
p594
(dp595
g3
S'43.528717'
p596
sg5
(lp597
S'Route2B'
p598
asg21
S'-80.292316'
p599
sg23
(lp600
S'Imperial Rd. N. at Willow Rd.'
p601
asba(i__main__
Stop
p602
(dp603
g3
S'43.527623'
p604
sg5
(lp605
S'Route2B'
p606
asg21
S'-80.296562'
p607
sg23
(lp608
S'Willow Rd. at Flaherty Dr.'
p609
asba(i__main__
Stop
p610
(dp611
g3
S'43.523239'
p612
sg5
(lp613
S'Route2B'
p614
asg21
S'-80.293729'
p615
sg23
(lp616
S'Elmira Rd. at West End Community Centre'
p617
asba(i__main__
Stop
p618
(dp619
g3
S'43.521827'
p620
sg5
(lp621
S'Route2B'
p622
asg21
S'-80.289727'
p623
sg23
(lp624
S'Elmira Rd.at Paisley'
p625
asba(i__main__
Stop
p626
(dp627
g3
S'43.518734'
p628
sg5
(lp629
S'Route2B'
p630
asg21
S'-80.281997'
p631
sg23
(lp632
S'Elmira Rd. at Fresh Meadow Way'
p633
asba(i__main__
Stop
p634
(dp635
g3
S'43.516498'
p636
sg5
(lp637
S'Route2B'
p638
asg21
S'-80.279127'
p639
sg23
(lp640
S'Elmira Rd. at Rochelle Dr.'
p641
asba(i__main__
Stop
p642
(dp643
g3
S'43.513936'
p644
sg5
(lp645
S'Route2B'
p646
asg21
S'-80.275264'
p647
sg23
(lp648
S'Fife Rd. at Elmira Rd.'
p649
asba(i__main__
Stop
p650
(dp651
g3
S'43.513878'
p652
sg5
(lp653
S'Route2B'
p654
asg21
S'-80.275337'
p655
sg23
(lp656
S'Fife Rd. at Gateway Dr.'
p657
asba(i__main__
Stop
p658
(dp659
g3
S'43.517774'
p660
sg5
(lp661
S'Route2B'
p662
asg21
S'-80.270061'
p663
sg23
(lp664
S'26 Fife Rd. at Coop'
p665
asba(i__main__
Stop
p666
(dp667
g3
S'43.522874'
p668
sg5
(lp669
S'Route2B'
p670
asg21
S'-80.267234'
p671
sg23
(lp672
S'Wellington St. W. at Wastewater Treatment Plant'
p673
asba(i__main__
Stop
p674
(dp675
g3
S'43.516108'
p676
sg5
(lp677
S'Route2B'
p678
aS'Route1B'
p679
aS'Route6'
p680
asg21
S'-80.238548'
p681
sg23
(lp682
S'Stone Rd. W. at Scottsdale Dr.'
p683
asba(i__main__
Stop
p684
(dp685
g3
S'43.517578'
p686
sg5
(lp687
S'Route2B'
p688
aS'Route1B'
p689
aS'Route6'
p690
asg21
S'-80.236634'
p691
sg23
(lp692
S'372 Stone Rd. W.'
p693
asba(i__main__
Stop
p694
(dp695
g3
S'43.519475'
p696
sg5
(lp697
S'Route2B'
p698
aS'Route1B'
p699
aS'Route6'
p700
asg21
S'-80.234214'
p701
sg23
(lp702
S'292 Stone Rd. W.'
p703
aS'Stone Rd. W. at Edinburgh Rd. S.'
p704
asba(i__main__
Stop
p705
(dp706
g3
S'43.521656'
p707
sg5
(lp708
S'Route2B'
p709
asg21
S'-80.2312633395195'
p710
sg23
(lp711
S'Stone Rd. opposite Zellers'
p712
asba(i__main__
Stop
p713
(dp714
g3
S'43.524669'
p715
sg5
(lp716
S'Route2B'
p717
asg21
S'-80.227194'
p718
sg23
(lp719
S'95 Stone Rd. W.'
p720
asba(i__main__
Stop
p721
(dp722
g3
S'43.530139'
p723
sg5
(lp724
S'Route2B'
p725
asg21
S'-80.225671'
p726
sg23
(lp727
S'University Centre'
p728
asba(i__main__
Stop
p729
(dp730
g3
S'43.531442'
p731
sg5
(lp732
S'Route2B'
p733
aS'Route3A'
p734
aS'Route5'
p735
aS'Route16'
p736
asg21
S'-80.231459'
p737
sg23
(lp738
S'Gordon St. at Vet College'
p739
asba(i__main__
Stop
p740
(dp741
g3
S'43.532842'
p742
sg5
(lp743
S'Route2B'
p744
aS'Route3A'
p745
aS'Route5'
p746
aS'Route16'
p747
asg21
S'-80.233321'
p748
sg23
(lp749
S'Gordon St. at Macdonald Stewart Art Centre'
p750
asba(i__main__
Stop
p751
(dp752
g3
S'43.536904'
p753
sg5
(lp754
S'Route2B'
p755
aS'Route3A'
p756
aS'Route5'
p757
aS'Route16'
p758
asg21
S'-80.239148'
p759
sg23
(lp760
S'Gordon St. at Dormie Lane'
p761
asba(i__main__
Stop
p762
(dp763
g3
S'43.538124'
p764
sg5
(lp765
S'Route2B'
p766
aS'Route3A'
p767
aS'Route5'
p768
aS'Route16'
p769
asg21
S'-80.240880'
p770
sg23
(lp771
S'Gordon St. at Water St.'
p772
asba(i__main__
Stop
p773
(dp774
g3
S'43.541440'
p775
sg5
(lp776
S'Route2B'
p777
aS'Route16'
p778
asg21
S'-80.244076'
p779
sg23
(lp780
S'Wellington St. at Wellington Plaza'
p781
asba(i__main__
Stop
p782
(dp783
g3
S'43.543369'
p784
sg5
(lp785
S'Route2B'
p786
aS'Route16'
p787
asg21
S'-80.245192'
p788
sg23
(lp789
S'Wyndham St. at Fountain St.'
p790
asba(i__main__
Stop
p791
(dp792
g3
S'43.545892'
p793
sg5
(lp794
S'Route2B'
p795
aS'Route3A'
p796
asg21
S'-80.249020'
p797
sg23
(lp798
S'Guelph Central Station'
p799
aS'Woolwich St. at Cardigan St.'
p800
asba(i__main__
Stop
p801
(dp802
g3
S'43.541749'
p803
sg5
(lp804
S'Route3B'
p805
asg21
S'-80.247968'
p806
sg23
(lp807
S'Gordon St. at Nottingham St.'
p808
asba(i__main__
Stop
p809
(dp810
g3
S'43.533101'
p811
sg5
(lp812
S'Route3B'
p813
asg21
S'-80.215941'
p814
sg23
(lp815
S'Stone Rd. E. at Arbour Medical Centre'
p816
asba(i__main__
Stop
p817
(dp818
g3
S'43.538966'
p819
sg5
(lp820
S'Route3B'
p821
aS'Route56'
p822
asg21
S'-80.208101'
p823
sg23
(lp824
S'Victoria Rd. S. at Stone Rd. E.'
p825
aS'Stone at Victoria'
p826
asba(i__main__
Stop
p827
(dp828
g3
S'43.552095'
p829
sg5
(lp830
S'Route3B'
p831
asg21
S'-80.223504'
p832
sg23
(lp833
S'535 York Rd. at Tim Hortons'
p834
asba(i__main__
Stop
p835
(dp836
g3
S'43.554649'
p837
sg5
(lp838
S'Route3B'
p839
asg21
S'-80.22002'
p840
sg23
(lp841
S'York Rd. at Beaumont Cres.'
p842
asba(i__main__
Stop
p843
(dp844
g3
S'43.556909'
p845
sg5
(lp846
S'Route3B'
p847
asg21
S'-80.216868'
p848
sg23
(lp849
S'728 York Rd.'
p850
asba(i__main__
Stop
p851
(dp852
g3
S'43.558812'
p853
sg5
(lp854
S'Route3B'
p855
asg21
S'-80.214229'
p856
sg23
(lp857
S'785 York Rd.'
p858
asba(i__main__
Stop
p859
(dp860
g3
S'43.561500'
p861
sg5
(lp862
S'Route3B'
p863
asg21
S'-80.210523'
p864
sg23
(lp865
S'York Rd. At Watson Pkwy. N.'
p866
asba(i__main__
Stop
p867
(dp868
g3
S'43.566523'
p869
sg5
(lp870
S'Route3B'
p871
asg21
S'-80.211495'
p872
sg23
(lp873
S'Watson Pkwy. N. opposite Library'
p874
asba(i__main__
Stop
p875
(dp876
g3
S'43.570403'
p877
sg5
(lp878
S'Route3B'
p879
asg21
S'-80.213451'
p880
sg23
(lp881
S'Watson Pkwy. N. at Fleming Rd.'
p882
asba(i__main__
Stop
p883
(dp884
g3
S'43.573888'
p885
sg5
(lp886
S'Route3B'
p887
asg21
S'-80.218251'
p888
sg23
(lp889
S'Watson Pkwy. N. at Grange Rd.'
p890
asba(i__main__
Stop
p891
(dp892
g3
S'43.577843'
p893
sg5
(lp894
S'Route3B'
p895
asg21
S'-80.223768'
p896
sg23
(lp897
S'Watson Pkwy. N. at  Eastview Rd.'
p898
asba(i__main__
Stop
p899
(dp900
g3
S'43.572774'
p901
sg5
(lp902
S'Route3B'
p903
asg21
S'-80.231459'
p904
sg23
(lp905
S'Eastview Rd. at Summit Ridge Dr.'
p906
asba(i__main__
Stop
p907
(dp908
g3
S'43.570083'
p909
sg5
(lp910
S'Route3B'
p911
asg21
S'-80.235092'
p912
sg23
(lp913
S'Eastview Rd. at Starwood Dr.'
p914
asba(i__main__
Stop
p915
(dp916
g3
S'43.567393'
p917
sg5
(lp918
S'Route3B'
p919
aS'Route13'
p920
asg21
S'-80.238771'
p921
sg23
(lp922
S'Eastview Rd. at Mountford Dr.'
p923
asba(i__main__
Stop
p924
(dp925
g3
S'43.565032'
p926
sg5
(lp927
S'Route3B'
p928
aS'Route13'
p929
asg21
S'-80.241989'
p930
sg23
(lp931
S'Eastview Rd. at Victoria Rd.'
p932
aS'Eastview Rd. at VictoriaRd.'
p933
asba(i__main__
Stop
p934
(dp935
g3
S'43.567067'
p936
sg5
(lp937
S'Route3B'
p938
aS'Route13'
p939
asg21
S'-80.244971'
p940
sg23
(lp941
S'211 Victoria Rd. N.'
p942
aS'Victoria Rd. N. at Greenview St.'
p943
asba(i__main__
Stop
p944
(dp945
g3
S'43.56962'
p946
sg5
(lp947
S'Route3B'
p948
asg21
S'-80.248568'
p949
sg23
(lp950
S'Victoria Rd. N. at Eramosa Rd.'
p951
asba(i__main__
Stop
p952
(dp953
g3
S'43.57197'
p954
sg5
(lp955
S'Route3B'
p956
aS'Route12'
p957
asg21
S'-80.251773'
p958
sg23
(lp959
S'Victoria Rd. N. at Speedvale Ave. E.'
p960
asba(i__main__
Stop
p961
(dp962
g3
S'43.575281'
p963
sg5
(lp964
S'Route3B'
p965
aS'Route12'
p966
asg21
S'-80.256345'
p967
sg23
(lp968
S'Victoria Rd. N. at Brant Ave.'
p969
asba(i__main__
Stop
p970
(dp971
g3
S'43.578063'
p972
sg5
(lp973
S'Route3B'
p974
asg21
S'-80.260204'
p975
sg23
(lp976
S'Victoria Rd. N. at Woodlawn Rd. E.'
p977
asba(i__main__
Stop
p978
(dp979
g3
S'43.580826'
p980
sg5
(lp981
S'Route3B'
p982
asg21
S'-80.264077'
p983
sg23
(lp984
S'Victoria Rd. N. opposite Trillium Waldorf'
p985
asba(i__main__
Stop
p986
(dp987
g3
S'43.579009'
p988
sg5
(lp989
S'Route3B'
p990
asg21
S'-80.266687'
p991
sg23
(lp992
S'Inverness Dr. at Wilton Rd.'
p993
asba(i__main__
Stop
p994
(dp995
g3
S'43.576353'
p996
sg5
(lp997
S'Route3B'
p998
asg21
S'-80.262822'
p999
sg23
(lp1000
S'Inverness Dr. at Woodlawn Rd.'
p1001
asba(i__main__
Stop
p1002
(dp1003
g3
S'43.574227'
p1004
sg5
(lp1005
S'Route3B'
p1006
asg21
S'-80.264853'
p1007
sg23
(lp1008
S'Woodlawn Rd. E. at Golfview Dr.'
p1009
asba(i__main__
Stop
p1010
(dp1011
g3
S'43.571818'
p1012
sg5
(lp1013
S'Route3B'
p1014
asg21
S'-80.268227'
p1015
sg23
(lp1016
S'Woodlawn Rd. E. at Country Club Dr.'
p1017
asba(i__main__
Stop
p1018
(dp1019
g3
S'43.568609'
p1020
sg5
(lp1021
S'Route3B'
p1022
asg21
S'-80.272695'
p1023
sg23
(lp1024
S'Woodlawn Rd. E. at Riverside Glen'
p1025
asba(i__main__
Stop
p1026
(dp1027
g3
S'43.566001'
p1028
sg5
(lp1029
S'Route3B'
p1030
asg21
S'-80.276314'
p1031
sg23
(lp1032
S'Woodlawn Rd. E. at Canadian Tire'
p1033
asba(i__main__
Stop
p1034
(dp1035
g3
S'43.56494'
p1036
sg5
(lp1037
S'Route3B'
p1038
asg21
S'-80.279664'
p1039
sg23
(lp1040
S'Smart Centre Guelph'
p1041
asba(i__main__
Stop
p1042
(dp1043
g3
S'43.558355'
p1044
sg5
(lp1045
S'Route3B'
p1046
asg21
S'-80.280122'
p1047
sg23
(lp1048
S'Nicklin Rd. at Burns Dr.'
p1049
asba(i__main__
Stop
p1050
(dp1051
g3
S'43.557298'
p1052
sg5
(lp1053
S'Route3B'
p1054
asg21
S'-80.276217'
p1055
sg23
(lp1056
S'Bailey Ave. at Kathleen St.'
p1057
asba(i__main__
Stop
p1058
(dp1059
g3
S'43.555549'
p1060
sg5
(lp1061
S'Route3B'
p1062
asg21
S'-80.27256'
p1063
sg23
(lp1064
S'Kathleen St. at Speedvale Ave. W.'
p1065
asba(i__main__
Stop
p1066
(dp1067
g3
S'43.553154'
p1068
sg5
(lp1069
S'Route3B'
p1070
asg21
S'-80.274126'
p1071
sg23
(lp1072
S'Westmount Rd. at Kimberley Dr.'
p1073
asba(i__main__
Stop
p1074
(dp1075
g3
S'43.549794'
p1076
sg5
(lp1077
S'Route3B'
p1078
asg21
S'-80.269589'
p1079
sg23
(lp1080
S"St. Joseph's Health Centre"
p1081
asba(i__main__
Stop
p1082
(dp1083
g3
S'43.550158'
p1084
sg5
(lp1085
S'Route3B'
p1086
asg21
S'-80.270008'
p1087
sg23
(lp1088
S'Westmount Rd. at Division St.'
p1089
asba(i__main__
Stop
p1090
(dp1091
g3
S'43.548554'
p1092
sg5
(lp1093
S'Route3B'
p1094
asg21
S'-80.267786'
p1095
sg23
(lp1096
S'Westmount Rd. at Lourdes'
p1097
asba(i__main__
Stop
p1098
(dp1099
g3
S'43.545476'
p1100
sg5
(lp1101
S'Route3B'
p1102
asg21
S'-80.263459'
p1103
sg23
(lp1104
S'Westmount Rd. at London Rd. W.'
p1105
asba(i__main__
Stop
p1106
(dp1107
g3
S'43.545781'
p1108
sg5
(lp1109
S'Route3B'
p1110
asg21
S'-80.261342'
p1111
sg23
(lp1112
S'Yorkshire St. N. at Home St.'
p1113
asba(i__main__
Stop
p1114
(dp1115
g3
S'43.545368'
p1116
sg5
(lp1117
S'Route3B'
p1118
asg21
S'-80.258562'
p1119
sg23
(lp1120
S'Suffolk St. at Glasgow St.'
p1121
asba(i__main__
Stop
p1122
(dp1123
g3
S'43.546335'
p1124
sg5
(lp1125
S'Route3B'
p1126
asg21
S'-80.256689'
p1127
sg23
(lp1128
S'Suffolk St. at Dublin St. Church'
p1129
asba(i__main__
Stop
p1130
(dp1131
g3
S'43.54582712'
p1132
sg5
(lp1133
S'Route4'
p1134
asg21
S'-80.24580414'
p1135
sg23
(lp1136
S'Guelph Central Station'
p1137
asba(i__main__
Stop
p1138
(dp1139
g3
S'43.54413676'
p1140
sg5
(lp1141
S'Route4'
p1142
asg21
S'-80.24097264'
p1143
sg23
(lp1144
S'Neeve St. at Ontario St.'
p1145
asba(i__main__
Stop
p1146
(dp1147
g3
S'43.54470417'
p1148
sg5
(lp1149
S'Route4'
p1150
asg21
S'-80.23730491'
p1151
sg23
(lp1152
S'Ontario St at Manitoba St.'
p1153
asba(i__main__
Stop
p1154
(dp1155
g3
S'43.54520196'
p1156
sg5
(lp1157
S'Route4'
p1158
asg21
S'-80.23469665'
p1159
sg23
(lp1160
S'168 Ontario St.'
p1161
asba(i__main__
Stop
p1162
(dp1163
g3
S'43.54552549'
p1164
sg5
(lp1165
S'Route4'
p1166
asg21
S'-80.23274047'
p1167
sg23
(lp1168
S'Ontario St. at York Rd.'
p1169
asba(i__main__
Stop
p1170
(dp1171
g3
S'43.54671213'
p1172
sg5
(lp1173
S'Route4'
p1174
asg21
S'-80.23080247'
p1175
sg23
(lp1176
S'York Rd. at Morris St.'
p1177
asba(i__main__
Stop
p1178
(dp1179
g3
S'43.54913612'
p1180
sg5
(lp1181
S'Route4'
p1182
asg21
S'-80.22756837'
p1183
sg23
(lp1184
S'York Rd. at Brockville Ave.'
p1185
asba(i__main__
Stop
p1186
(dp1187
g3
S'43.55078627'
p1188
sg5
(lp1189
S'Route4'
p1190
asg21
S'-80.22533313'
p1191
sg23
(lp1192
S'York Rd. at Audrey Ave.'
p1193
asba(i__main__
Stop
p1194
(dp1195
g3
S'43.55223214'
p1196
sg5
(lp1197
S'Route4'
p1198
asg21
S'-80.22329365'
p1199
sg23
(lp1200
S'535 York Rd. at Tim Hortons'
p1201
asba(i__main__
Stop
p1202
(dp1203
g3
S'43.55458284'
p1204
sg5
(lp1205
S'Route4'
p1206
asg21
S'-80.22014686'
p1207
sg23
(lp1208
S'York Rd. at Beaumont Cres.'
p1209
asba(i__main__
Stop
p1210
(dp1211
g3
S'43.55693523'
p1212
sg5
(lp1213
S'Route4'
p1214
asg21
S'-80.21688324'
p1215
sg23
(lp1216
S'728 York Rd.'
p1217
asba(i__main__
Stop
p1218
(dp1219
g3
S'43.55872643'
p1220
sg5
(lp1221
S'Route4'
p1222
asg21
S'-80.21438384'
p1223
sg23
(lp1224
S'895 York Rd.'
p1225
asba(i__main__
Stop
p1226
(dp1227
g3
S'43.56153565'
p1228
sg5
(lp1229
S'Route4'
p1230
asg21
S'-80.21054688'
p1231
sg23
(lp1232
S'York Rd. at Watson Pkwy. N.'
p1233
asba(i__main__
Stop
p1234
(dp1235
g3
S'43.56350386'
p1236
sg5
(lp1237
S'Route4'
p1238
asg21
S'-80.20788965'
p1239
sg23
(lp1240
S'York Rd. at Graniteworx'
p1241
asba(i__main__
Stop
p1242
(dp1243
g3
S'43.56449176'
p1244
sg5
(lp1245
S'Route4'
p1246
asg21
S'-80.20546404'
p1247
sg23
(lp1248
S'Watson Rd. S. at York Rd.'
p1249
asba(i__main__
Stop
p1250
(dp1251
g3
S'43.56243048'
p1252
sg5
(lp1253
S'Route4'
p1254
asg21
S'-80.20258634'
p1255
sg23
(lp1256
S'Watson Rd. S. at Airpark Pl.'
p1257
asba(i__main__
Stop
p1258
(dp1259
g3
S'43.5605435'
p1260
sg5
(lp1261
S'Route4'
p1262
asg21
S'-80.19994552'
p1263
sg23
(lp1264
S'Watson Rd. S. at Guelph Transit Centre'
p1265
asba(i__main__
Stop
p1266
(dp1267
g3
S'43.55799165'
p1268
sg5
(lp1269
S'Route4'
p1270
asg21
S'-80.19896715'
p1271
sg23
(lp1272
S'Watson Pkwy. S. at Dunlop Dr.'
p1273
asba(i__main__
Stop
p1274
(dp1275
g3
S'43.55905022'
p1276
sg5
(lp1277
S'Route4'
p1278
asg21
S'-80.20286232'
p1279
sg23
(lp1280
S'Watson Pkwy. S. at Cargill'
p1281
asba(i__main__
Stop
p1282
(dp1283
g3
S'43.56028046'
p1284
sg5
(lp1285
S'Route4'
p1286
asg21
S'-80.20619722'
p1287
sg23
(lp1288
S'Watson Pkwy. S. at Taggert St.'
p1289
asba(i__main__
Stop
p1290
(dp1291
g3
S'43.56151064'
p1292
sg5
(lp1293
S'Route4'
p1294
asg21
S'-80.21082655'
p1295
sg23
(lp1296
S'York Rd. at Watson Pkwy. N.'
p1297
asba(i__main__
Stop
p1298
(dp1299
g3
S'43.55847725'
p1300
sg5
(lp1301
S'Route4'
p1302
asg21
S'-80.21503684'
p1303
sg23
(lp1304
S'York Rd. at Yorkhaven Pl..'
p1305
asba(i__main__
Stop
p1306
(dp1307
g3
S'43.55703595'
p1308
sg5
(lp1309
S'Route4'
p1310
asg21
S'-80.21700185'
p1311
sg23
(lp1312
S'York Rd. at Royal City Jaycees Park'
p1313
asba(i__main__
Stop
p1314
(dp1315
g3
S'43.55493605'
p1316
sg5
(lp1317
S'Route4'
p1318
asg21
S'-80.21990711'
p1319
sg23
(lp1320
S'York Rd. at Beaumont Cres.'
p1321
asba(i__main__
Stop
p1322
(dp1323
g3
S'43.55154516'
p1324
sg5
(lp1325
S'Route4'
p1326
asg21
S'-80.22455892'
p1327
sg23
(lp1328
S'York Rd. at Victoria Rd.'
p1329
asba(i__main__
Stop
p1330
(dp1331
g3
S'43.54905218'
p1332
sg5
(lp1333
S'Route4'
p1334
asg21
S'-80.22787225'
p1335
sg23
(lp1336
S'York Rd. at Brockville Ave.'
p1337
asba(i__main__
Stop
p1338
(dp1339
g3
S'43.54753114'
p1340
sg5
(lp1341
S'Route4'
p1342
asg21
S'-80.22995403'
p1343
sg23
(lp1344
S'York Rd. at Harris St.'
p1345
asba(i__main__
Stop
p1346
(dp1347
g3
S'43.5456181'
p1348
sg5
(lp1349
S'Route4'
p1350
asg21
S'-80.23307566'
p1351
sg23
(lp1352
S'Ontario St. at Huron St.'
p1353
asba(i__main__
Stop
p1354
(dp1355
g3
S'43.54485745'
p1356
sg5
(lp1357
S'Route4'
p1358
asg21
S'-80.23718307'
p1359
sg23
(lp1360
S'70 Ontario St.'
p1361
asba(i__main__
Stop
p1362
(dp1363
g3
S'43.54426392'
p1364
sg5
(lp1365
S'Route4'
p1366
asg21
S'-80.2402114'
p1367
sg23
(lp1368
S'Ontario St. at Neeve St.'
p1369
asba(i__main__
Stop
p1370
(dp1371
g3
S'43.56127596'
p1372
sg5
(lp1373
S'Route4'
p1374
asg21
S'-80.20764978'
p1375
sg23
(lp1376
S'Guelph Central Station'
p1377
asba(i__main__
Stop
p1378
(dp1379
g3
S'43.545395'
p1380
sg5
(lp1381
S'Route10'
p1382
asg21
S'-80.246324'
p1383
sg23
(lp1384
S'Guelph Central Station'
p1385
asba(i__main__
Stop
p1386
(dp1387
g3
S'43.545816'
p1388
sg5
(lp1389
S'Route10'
p1390
asg21
S'-80.249985'
p1391
sg23
(lp1392
S'Quebec St. at B.M.O.'
p1393
asba(i__main__
Stop
p1394
(dp1395
g3
S'43.545416'
p1396
sg5
(lp1397
S'Route10'
p1398
asg21
S'-80.252869'
p1399
sg23
(lp1400
S'Paisley St. at Library'
p1401
asba(i__main__
Stop
p1402
(dp1403
g3
S'43.543483'
p1404
sg5
(lp1405
S'Route10'
p1406
asg21
S'-80.256727'
p1407
sg23
(lp1408
S'Paisley St. at Glasgow St.'
p1409
asba(i__main__
Stop
p1410
(dp1411
g3
S'43.542421'
p1412
sg5
(lp1413
S'Route10'
p1414
asg21
S'-80.258820'
p1415
sg23
(lp1416
S'Paisley St. at G.C.V.I.'
p1417
asba(i__main__
Stop
p1418
(dp1419
g3
S'43.541522'
p1420
sg5
(lp1421
S'Route10'
p1422
asg21
S'-80.260557'
p1423
sg23
(lp1424
S'Paisley St. at Harrison Ave.'
p1425
asba(i__main__
Stop
p1426
(dp1427
g3
S'43.540699'
p1428
sg5
(lp1429
S'Route10'
p1430
asg21
S'-80.263171'
p1431
sg23
(lp1432
S'Paisley St. at Edinburgh Rd. N.'
p1433
asba(i__main__
Stop
p1434
(dp1435
g3
S'43.538862'
p1436
sg5
(lp1437
S'Route10'
p1438
asg21
S'-80.265657'
p1439
sg23
(lp1440
S'Paisley Rd. at Alma St.'
p1441
asba(i__main__
Stop
p1442
(dp1443
g3
S'43.536467'
p1444
sg5
(lp1445
S'Route10'
p1446
asg21
S'-80.268935'
p1447
sg23
(lp1448
S'Paisley Rd. at Western Ave.'
p1449
asba(i__main__
Stop
p1450
(dp1451
g3
S'43.534616'
p1452
sg5
(lp1453
S'Route10'
p1454
asg21
S'-80.271486'
p1455
sg23
(lp1456
S'Paisley Rd. at Heath Rd.'
p1457
asba(i__main__
Stop
p1458
(dp1459
g3
S'43.535150'
p1460
sg5
(lp1461
S'Route10'
p1462
asg21
S'-80.275370'
p1463
sg23
(lp1464
S'Westwood Rd. at Silvercreek Pkwy. N.'
p1465
asba(i__main__
Stop
p1466
(dp1467
g3
S'43.532712'
p1468
sg5
(lp1469
S'Route10'
p1470
asg21
S'-80.278921'
p1471
sg23
(lp1472
S'85 Westwood Rd.'
p1473
asba(i__main__
Stop
p1474
(dp1475
g3
S'43.532762'
p1476
sg5
(lp1477
S'Route10'
p1478
asg21
S'-80.285243'
p1479
sg23
(lp1480
S'225 Westwood Rd.'
p1481
asba(i__main__
Stop
p1482
(dp1483
g3
S'43.533285'
p1484
sg5
(lp1485
S'Route10'
p1486
aS'Route20'
p1487
asg21
S'-80.288209'
p1488
sg23
(lp1489
S'Willow Rd. at Westwood Rd.'
p1490
aS'577  Willow Rd. at Church'
p1491
asba(i__main__
Stop
p1492
(dp1493
g3
S'43.531384'
p1494
sg5
(lp1495
S'Route10'
p1496
asg21
S'-80.290685'
p1497
sg23
(lp1498
S'577 Willow Rd. at Church'
p1499
asba(i__main__
Stop
p1500
(dp1501
g3
S'43.527646'
p1502
sg5
(lp1503
S'Route10'
p1504
asg21
S'-80.290672'
p1505
sg23
(lp1506
S'Imperial Rd. S. at Ferman Dr.'
p1507
asba(i__main__
Stop
p1508
(dp1509
g3
S'43.522344'
p1510
sg5
(lp1511
S'Route10'
p1512
asg21
S'-80.291079'
p1513
sg23
(lp1514
S'West End Community Centre'
p1515
asba(i__main__
Stop
p1516
(dp1517
g3
S'43.526110'
p1518
sg5
(lp1519
S'Route10'
p1520
asg21
S'-80.285423'
p1521
sg23
(lp1522
S'926 Paisley Rd.'
p1523
asba(i__main__
Stop
p1524
(dp1525
g3
S'43.529005'
p1526
sg5
(lp1527
S'Route10'
p1528
asg21
S'-80.279237'
p1529
sg23
(lp1530
S'Paisley Rd. at Candlewood Dr.'
p1531
asba(i__main__
Stop
p1532
(dp1533
g3
S'43.530899'
p1534
sg5
(lp1535
S'Route10'
p1536
asg21
S'-80.276021'
p1537
sg23
(lp1538
S'Paisley Rd. at West Hill Estates'
p1539
asba(i__main__
Stop
p1540
(dp1541
g3
S'43.534478'
p1542
sg5
(lp1543
S'Route10'
p1544
asg21
S'-80.271486'
p1545
sg23
(lp1546
S'Paisley Rd. at Heath Rd.'
p1547
asba(i__main__
Stop
p1548
(dp1549
g3
S'43.536911'
p1550
sg5
(lp1551
S'Route10'
p1552
asg21
S'-80.268142'
p1553
sg23
(lp1554
S'Paisley Rd. at Goldie Ave.'
p1555
asba(i__main__
Stop
p1556
(dp1557
g3
S'43.538742'
p1558
sg5
(lp1559
S'Route10'
p1560
asg21
S'-80.265622'
p1561
sg23
(lp1562
S'Paisley Rd. at Alma St.'
p1563
asba(i__main__
Stop
p1564
(dp1565
g3
S'43.540451'
p1566
sg5
(lp1567
S'Route10'
p1568
asg21
S'-80.263289'
p1569
sg23
(lp1570
S'Paisley Rd. at Edinburgh Rd. N.'
p1571
asba(i__main__
Stop
p1572
(dp1573
g3
S'43.542516'
p1574
sg5
(lp1575
S'Route10'
p1576
aS'Route11'
p1577
asg21
S'-80.258347'
p1578
sg23
(lp1579
S'Paisley St. at Yorkshire St. N.'
p1580
asba(i__main__
Stop
p1581
(dp1582
g3
S'43.543289'
p1583
sg5
(lp1584
S'Route10'
p1585
aS'Route11'
p1586
asg21
S'-80.256822'
p1587
sg23
(lp1588
S'Paisley St. at Glasgow St.'
p1589
asba(i__main__
Stop
p1590
(dp1591
g3
S'43.545130'
p1592
sg5
(lp1593
S'Route10'
p1594
asg21
S'-80.253188'
p1595
sg23
(lp1596
S'Paisley St. at Norfolk St.'
p1597
asba(i__main__
Stop
p1598
(dp1599
g3
S'43.544122'
p1600
sg5
(lp1601
S'Route11'
p1602
asg21
S'-80.250720'
p1603
sg23
(lp1604
S'Norfolk St. at Albion'
p1605
asba(i__main__
Stop
p1606
(dp1607
g3
S'43.547351'
p1608
sg5
(lp1609
S'Route11'
p1610
aS'Route3A'
p1611
asg21
S'-80.254939'
p1612
sg23
(lp1613
S'Suffolk St. W. at Norfolk St.'
p1614
aS'Suffolk St. at Dublin St.'
p1615
asba(i__main__
Stop
p1616
(dp1617
g3
S'43.546415'
p1618
sg5
(lp1619
S'Route11'
p1620
aS'Route3A'
p1621
asg21
S'-80.256760'
p1622
sg23
(lp1623
S'Suffolk St. W. at Dublin St.'
p1624
aS'Suffolk St. at Glasgow St.'
p1625
asba(i__main__
Stop
p1626
(dp1627
g3
S'43.545548'
p1628
sg5
(lp1629
S'Route11'
p1630
aS'Route3A'
p1631
asg21
S'-80.258462'
p1632
sg23
(lp1633
S'Suffolk St. W. at Glasgow St.'
p1634
aS'Yorkshire St. N. at London Rd. W.'
p1635
asba(i__main__
Stop
p1636
(dp1637
g3
S'43.544199'
p1638
sg5
(lp1639
S'Route11'
p1640
asg21
S'-80.260931'
p1641
sg23
(lp1642
S'Suffolk St. W. at Yorkshire St. N.'
p1643
asba(i__main__
Stop
p1644
(dp1645
g3
S'43.542564'
p1646
sg5
(lp1647
S'Route11'
p1648
asg21
S'-80.264131'
p1649
sg23
(lp1650
S'Suffolk St. W. at Edinburgh Rd. N.'
p1651
asba(i__main__
Stop
p1652
(dp1653
g3
S'43.542856'
p1654
sg5
(lp1655
S'Route11'
p1656
asg21
S'-80.265335'
p1657
sg23
(lp1658
S'Edinburgh Rd. N. at Mercer St.'
p1659
asba(i__main__
Stop
p1660
(dp1661
g3
S'43.545391'
p1662
sg5
(lp1663
S'Route11'
p1664
aS'Route20'
p1665
asg21
S'-80.271529'
p1666
sg23
(lp1667
S'Willow Rd. at Dawson Rd.'
p1668
asba(i__main__
Stop
p1669
(dp1670
g3
S'43.545826'
p1671
sg5
(lp1672
S'Route11'
p1673
asg21
S'-80.274188'
p1674
sg23
(lp1675
S'Dawson Rd. at Shelldale Cres.'
p1676
asba(i__main__
Stop
p1677
(dp1678
g3
S'43.549314'
p1679
sg5
(lp1680
S'Route11'
p1681
asg21
S'-80.279025'
p1682
sg23
(lp1683
S'Dawson Rd. at Dawson Road Medical Clinic'
p1684
asba(i__main__
Stop
p1685
(dp1686
g3
S'43.547790'
p1687
sg5
(lp1688
S'Route11'
p1689
asg21
S'-80.282995'
p1690
sg23
(lp1691
S'229 Speedvale Ave. W.'
p1692
asba(i__main__
Stop
p1693
(dp1694
g3
S'43.545027'
p1695
sg5
(lp1696
S'Route11'
p1697
asg21
S'-80.286831'
p1698
sg23
(lp1699
S'Speedvale Ave. W. at Silvercreek Pkwy. N.'
p1700
asba(i__main__
Stop
p1701
(dp1702
g3
S'43.542554'
p1703
sg5
(lp1704
S'Route11'
p1705
asg21
S'-80.290189'
p1706
sg23
(lp1707
S'361 Speedvale Ave. W.'
p1708
asba(i__main__
Stop
p1709
(dp1710
g3
S'43.540700'
p1711
sg5
(lp1712
S'Route11'
p1713
asg21
S'-80.292026'
p1714
sg23
(lp1715
S'Marksham Rd. south of Speedvale Ave. W.'
p1716
asba(i__main__
Stop
p1717
(dp1718
g3
S'43.540369'
p1719
sg5
(lp1720
S'Route11'
p1721
asg21
S'-80.291578'
p1722
sg23
(lp1723
S'177 Marksam Rd.'
p1724
asba(i__main__
Stop
p1725
(dp1726
g3
S'43.537827'
p1727
sg5
(lp1728
S'Route11'
p1729
asg21
S'-80.288856'
p1730
sg23
(lp1731
S'145 Marksam Rd.'
p1732
asba(i__main__
Stop
p1733
(dp1734
g3
S'43.536977'
p1735
sg5
(lp1736
S'Route11'
p1737
asg21
S'-80.283222'
p1738
sg23
(lp1739
S'76 Marksam Rd.'
p1740
asba(i__main__
Stop
p1741
(dp1742
g3
S'43.540246'
p1743
sg5
(lp1744
S'Route11'
p1745
asg21
S'-80.278258'
p1746
sg23
(lp1747
S'Willow Rd. at Silvercreek Pkwy.'
p1748
asba(i__main__
Stop
p1749
(dp1750
g3
S'43.542696'
p1751
sg5
(lp1752
S'Route11'
p1753
asg21
S'-80.274948'
p1754
sg23
(lp1755
S'158 Willow Rd.'
p1756
asba(i__main__
Stop
p1757
(dp1758
g3
S'43.543569'
p1759
sg5
(lp1760
S'Route11'
p1761
asg21
S'-80.273708'
p1762
sg23
(lp1763
S'66 Willow Rd.'
p1764
asba(i__main__
Stop
p1765
(dp1766
g3
S'43.545212'
p1767
sg5
(lp1768
S'Route11'
p1769
asg21
S'-80.271456'
p1770
sg23
(lp1771
S'26 Willow Rd.'
p1772
asba(i__main__
Stop
p1773
(dp1774
g3
S'43.542215'
p1775
sg5
(lp1776
S'Route11'
p1777
asg21
S'-80.264745'
p1778
sg23
(lp1779
S'200 Edinburgh Rd. N.'
p1780
asba(i__main__
Stop
p1781
(dp1782
g3
S'43.54513'
p1783
sg5
(lp1784
S'Route11'
p1785
asg21
S'-80.253188'
p1786
sg23
(lp1787
S'Paisley St. at Norfolk St.'
p1788
asba(i__main__
Stop
p1789
(dp1790
g3
S'43.54518'
p1791
sg5
(lp1792
S'Route14'
p1793
asg21
S'-80.24605'
p1794
sg23
(lp1795
S'Guelph Central Station'
p1796
asba(i__main__
Stop
p1797
(dp1798
g3
S'43.5479'
p1799
sg5
(lp1800
S'Route14'
p1801
asg21
S'-80.241684'
p1802
sg23
(lp1803
S'Elizabeth St. at Duke St.'
p1804
asba(i__main__
Stop
p1805
(dp1806
g3
S'43.549022'
p1807
sg5
(lp1808
S'Route14'
p1809
asg21
S'-80.240144'
p1810
sg23
(lp1811
S'65 Elizabeth St.'
p1812
asba(i__main__
Stop
p1813
(dp1814
g3
S'43.550865'
p1815
sg5
(lp1816
S'Route14'
p1817
asg21
S'-80.237719'
p1818
sg23
(lp1819
S'Elizabeth St. at Morris St.'
p1820
asba(i__main__
Stop
p1821
(dp1822
g3
S'43.552852'
p1823
sg5
(lp1824
S'Route14'
p1825
asg21
S'-80.235072'
p1826
sg23
(lp1827
S'Elizabeth St. at Stevenson St.'
p1828
asba(i__main__
Stop
p1829
(dp1830
g3
S'43.555192'
p1831
sg5
(lp1832
S'Route14'
p1833
asg21
S'-80.229946'
p1834
sg23
(lp1835
S'Elizabeth St. at Victoria Rd. N.'
p1836
asba(i__main__
Stop
p1837
(dp1838
g3
S'43.55779'
p1839
sg5
(lp1840
S'Route14'
p1841
asg21
S'-80.231868'
p1842
sg23
(lp1843
S'Grange Rd. at Victoria Rd. N.'
p1844
asba(i__main__
Stop
p1845
(dp1846
g3
S'43.559965'
p1847
sg5
(lp1848
S'Route14'
p1849
asg21
S'-80.22695'
p1850
sg23
(lp1851
S'Grange Rd. at Schroder Cres.'
p1852
asba(i__main__
Stop
p1853
(dp1854
g3
S'43.564124'
p1855
sg5
(lp1856
S'Route14'
p1857
asg21
S'-80.222922'
p1858
sg23
(lp1859
S'Grange Rd. at Breesgarden Lane'
p1860
asba(i__main__
Stop
p1861
(dp1862
g3
S'43.567439'
p1863
sg5
(lp1864
S'Route14'
p1865
asg21
S'-80.222527'
p1866
sg23
(lp1867
S'Grange Rd. at Ralston Dr.'
p1868
asba(i__main__
Stop
p1869
(dp1870
g3
S'43.570595'
p1871
sg5
(lp1872
S'Route14'
p1873
asg21
S'-80.221717'
p1874
sg23
(lp1875
S'Grange Rd. at Ken Danby School'
p1876
asba(i__main__
Stop
p1877
(dp1878
g3
S'43.573407'
p1879
sg5
(lp1880
S'Route14'
p1881
asg21
S'-80.217850'
p1882
sg23
(lp1883
S'Watson Pkwy. N. South of Grange Rd.. N.'
p1884
asba(i__main__
Stop
p1885
(dp1886
g3
S'43.570527'
p1887
sg5
(lp1888
S'Route14'
p1889
asg21
S'-80.21377'
p1890
sg23
(lp1891
S'Watson Pkwy. N. at Fleming Rd.'
p1892
asba(i__main__
Stop
p1893
(dp1894
g3
S'43.566571'
p1895
sg5
(lp1896
S'Route14'
p1897
aS'Route3A'
p1898
asg21
S'-80.211793'
p1899
sg23
(lp1900
S'Watson Pkwy. N. at Library'
p1901
aS'York Rd. At Watson Pkwy N.'
p1902
asba(i__main__
Stop
p1903
(dp1904
g3
S'43.566464'
p1905
sg5
(lp1906
S'Route14'
p1907
asg21
S'-80.217997'
p1908
sg23
(lp1909
S'Starwood Dr. at Fleming Rd.'
p1910
asba(i__main__
Stop
p1911
(dp1912
g3
S'43.566748'
p1913
sg5
(lp1914
S'Route14'
p1915
asg21
S'-80.221188'
p1916
sg23
(lp1917
S'Starwood Dr. at Ralston Dr.'
p1918
asba(i__main__
Stop
p1919
(dp1920
g3
S'43.565688'
p1921
sg5
(lp1922
S'Route14'
p1923
asg21
S'-80.22304'
p1924
sg23
(lp1925
S'Grange Rd. at Silurian Dr.'
p1926
asba(i__main__
Stop
p1927
(dp1928
g3
S'43.560584'
p1929
sg5
(lp1930
S'Route14'
p1931
asg21
S'-80.22639'
p1932
sg23
(lp1933
S'Grange Rd. at Auden Rd.'
p1934
asba(i__main__
Stop
p1935
(dp1936
g3
S'43.559028'
p1937
sg5
(lp1938
S'Route14'
p1939
asg21
S'-80.228522'
p1940
sg23
(lp1941
S'Grange Rd. at St. James Park'
p1942
asba(i__main__
Stop
p1943
(dp1944
g3
S'43.556903'
p1945
sg5
(lp1946
S'Route14'
p1947
asg21
S'-80.231'
p1948
sg23
(lp1949
S'Victoria Rd. N. at Grange Rd.'
p1950
asba(i__main__
Stop
p1951
(dp1952
g3
S'43.555289'
p1953
sg5
(lp1954
S'Route14'
p1955
asg21
S'-80.230253'
p1956
sg23
(lp1957
S'Elizabeth St. at Victoria Rd. N.'
p1958
asba(i__main__
Stop
p1959
(dp1960
g3
S'43.553328'
p1961
sg5
(lp1962
S'Route14'
p1963
asg21
S'-80.234705'
p1964
sg23
(lp1965
S'Elizabeth St. at Stevenson St.'
p1966
asba(i__main__
Stop
p1967
(dp1968
g3
S'43.551418'
p1969
sg5
(lp1970
S'Route14'
p1971
asg21
S'-80.237208'
p1972
sg23
(lp1973
S'Elizabeth St. at Morris St.'
p1974
asba(i__main__
Stop
p1975
(dp1976
g3
S'43.549593'
p1977
sg5
(lp1978
S'Route14'
p1979
asg21
S'-80.239644'
p1980
sg23
(lp1981
S'Elizabeth St. at Huron St.'
p1982
asba(i__main__
Stop
p1983
(dp1984
g3
S'43.548577'
p1985
sg5
(lp1986
S'Route14'
p1987
asg21
S'-80.240986'
p1988
sg23
(lp1989
S'Elizabeth St. at Red Chevron Club'
p1990
asba(i__main__
Stop
p1991
(dp1992
g3
S'43.542723'
p1993
sg5
(lp1994
S'Route20'
p1995
asg21
S'-80.275201'
p1996
sg23
(lp1997
S'Willow Rd. at Willow Road P.S'
p1998
asba(i__main__
Stop
p1999
(dp2000
g3
S'43.539628'
p2001
sg5
(lp2002
S'Route20'
p2003
asg21
S'-80.279519'
p2004
sg23
(lp2005
S'Willow West Mall'
p2006
asba(i__main__
Stop
p2007
(dp2008
g3
S'43.535078'
p2009
sg5
(lp2010
S'Route20'
p2011
asg21
S'-80.285726'
p2012
sg23
(lp2013
S'Willow Rd. at Westwood Public School'
p2014
asba(i__main__
Stop
p2015
(dp2016
g3
S'43.52762272'
p2017
sg5
(lp2018
S'Route20'
p2019
asg21
S'-80.29656172'
p2020
sg23
(lp2021
S'Willow Rd. at Flaherty Dr.'
p2022
asba(i__main__
Stop
p2023
(dp2024
g3
S'43.530528'
p2025
sg5
(lp2026
S'Route20'
p2027
asg21
S'-80.303578'
p2028
sg23
(lp2029
S'Elmira Rd N. at Flaherty Dr.'
p2030
asba(i__main__
Stop
p2031
(dp2032
g3
S'43.53318'
p2033
sg5
(lp2034
S'Route20'
p2035
asg21
S'-80.307097'
p2036
sg23
(lp2037
S'Elmira Rd. N. at Independence Pl.'
p2038
asba(i__main__
Stop
p2039
(dp2040
g3
S'43.54074'
p2041
sg5
(lp2042
S'Route20'
p2043
asg21
S'-80.301904'
p2044
sg23
(lp2045
S'Elmira Rd. at Massey Rd.'
p2046
asba(i__main__
Stop
p2047
(dp2048
g3
S'43.535001'
p2049
sg5
(lp2050
S'Route20'
p2051
asg21
S'-80.3092'
p2052
sg23
(lp2053
S'Elmira Rd. at Power Corp'
p2054
asba(i__main__
Stop
p2055
(dp2056
g3
S'43.535607'
p2057
sg5
(lp2058
S'Route20'
p2059
asg21
S'-80.318127'
p2060
sg23
(lp2061
S'925 Woodlawn Rd.'
p2062
asba(i__main__
Stop
p2063
(dp2064
g3
S'43.533243'
p2065
sg5
(lp2066
S'Route20'
p2067
asg21
S'-80.321935'
p2068
sg23
(lp2069
S'Across from 498 Governors Rd.'
p2070
asba(i__main__
Stop
p2071
(dp2072
g3
S'43.536058'
p2073
sg5
(lp2074
S'Route20'
p2075
asg21
S'-80.322418'
p2076
sg23
(lp2077
S'110 Malcolm Rd.'
p2078
asba(i__main__
Stop
p2079
(dp2080
g3
S'43.537101'
p2081
sg5
(lp2082
S'Route20'
p2083
asg21
S'-80.320916'
p2084
sg23
(lp2085
S'50 Malcolm Rd.'
p2086
asba(i__main__
Stop
p2087
(dp2088
g3
S'43.538407'
p2089
sg5
(lp2090
S'Route20'
p2091
asg21
S'-80.319285'
p2092
sg23
(lp2093
S'14 Malcolm Rd.'
p2094
asba(i__main__
Stop
p2095
(dp2096
g3
S'43.539932'
p2097
sg5
(lp2098
S'Route20'
p2099
asg21
S'-80.316989'
p2100
sg23
(lp2101
S'2 Malcolm Rd.'
p2102
asba(i__main__
Stop
p2103
(dp2104
g3
S'43.533818'
p2105
sg5
(lp2106
S'Route20'
p2107
asg21
S'-80.31935'
p2108
sg23
(lp2109
S'450 Michener Rd.'
p2110
asba(i__main__
Stop
p2111
(dp2112
g3
S'43.531143'
p2113
sg5
(lp2114
S'Route20'
p2115
asg21
S'-80.315595'
p2116
sg23
(lp2117
S'Michener Rd. at Massey Rd.'
p2118
asba(i__main__
Stop
p2119
(dp2120
g3
S'43.532232'
p2121
sg5
(lp2122
S'Route20'
p2123
asg21
S'-80.31347'
p2124
sg23
(lp2125
S'530 Massey Rd.'
p2126
asba(i__main__
Stop
p2127
(dp2128
g3
S'43.534705'
p2129
sg5
(lp2130
S'Route20'
p2131
asg21
S'-80.30978'
p2132
sg23
(lp2133
S'446 Massey Rd.'
p2134
asba(i__main__
Stop
p2135
(dp2136
g3
S'43.536167'
p2137
sg5
(lp2138
S'Route20'
p2139
asg21
S'-80.307763'
p2140
sg23
(lp2141
S'400 Massey Rd.'
p2142
asba(i__main__
Stop
p2143
(dp2144
g3
S'43.539372'
p2145
sg5
(lp2146
S'Route20'
p2147
asg21
S'-80.30302'
p2148
sg23
(lp2149
S'265 Massey Rd.'
p2150
asba(i__main__
Stop
p2151
(dp2152
g3
S'43.540367'
p2153
sg5
(lp2154
S'Route20'
p2155
asg21
S'-80.301948'
p2156
sg23
(lp2157
S'Across from 251 Massey Rd.'
p2158
asba(i__main__
Stop
p2159
(dp2160
g3
S'43.543773'
p2161
sg5
(lp2162
S'Route20'
p2163
asg21
S'-80.305638'
p2164
sg23
(lp2165
S'Imperial Rd. N. of Woodlawn Rd. W'
p2166
asba(i__main__
Stop
p2167
(dp2168
g3
S'43.549077'
p2169
sg5
(lp2170
S'Route20'
p2171
asg21
S'-80.306239'
p2172
sg23
(lp2173
S'190 Curtis Dr.'
p2174
asba(i__main__
Stop
p2175
(dp2176
g3
S'43.553665'
p2177
sg5
(lp2178
S'Route20'
p2179
asg21
S'-80.299931'
p2180
sg23
(lp2181
S'Curtis Dr. at Silvercreek Pkwy.'
p2182
asba(i__main__
Stop
p2183
(dp2184
g3
S'43.550834'
p2185
sg5
(lp2186
S'Route20'
p2187
asg21
S'-80.295854'
p2188
sg23
(lp2189
S'Silvercreek Pkwy. past Woodlawn Rd.'
p2190
asba(i__main__
Stop
p2191
(dp2192
g3
S'43.548019'
p2193
sg5
(lp2194
S'Route20'
p2195
asg21
S'-80.29197'
p2196
sg23
(lp2197
S'Silvercreek Pkwy N. at Campbell Rd.'
p2198
asba(i__main__
Stop
p2199
(dp2200
g3
S'43.544924'
p2201
sg5
(lp2202
S'Route20'
p2203
asg21
S'-80.287571'
p2204
sg23
(lp2205
S'254 Silvercreek Pkwy.'
p2206
asba(i__main__
Stop
p2207
(dp2208
g3
S'43.542607'
p2209
sg5
(lp2210
S'Route20'
p2211
asg21
S'-80.28452'
p2212
sg23
(lp2213
S'214 Silvercreek Pkwy.'
p2214
asba(i__main__
Stop
p2215
(dp2216
g3
S'43.540196'
p2217
sg5
(lp2218
S'Route20'
p2219
asg21
S'-80.281091'
p2220
sg23
(lp2221
S'130 Silvercreek Pwky.'
p2222
asba(i__main__
Stop
p2223
(dp2224
g3
S'43.543695'
p2225
sg5
(lp2226
S'Route20'
p2227
asg21
S'-80.273666'
p2228
sg23
(lp2229
S'Willow Rd. at Silvercreek Pkwy.'
p2230
asba(i__main__
Stop
p2231
(dp2232
g3
S'43.54228'
p2233
sg5
(lp2234
S'Route20'
p2235
asg21
S'-80.275168'
p2236
sg23
(lp2237
S'158 Willow Rd.'
p2238
asba(i__main__
Stop
p2239
(dp2240
g3
S'43.54497'
p2241
sg5
(lp2242
S'Route20'
p2243
asg21
S'-80.271821'
p2244
sg23
(lp2245
S'66 Willow Rd.'
p2246
aS'26 Willow Rd.'
p2247
asba(i__main__
Stop
p2248
(dp2249
g3
S'43.542186'
p2250
sg5
(lp2251
S'Route20'
p2252
asg21
S'-80.264568'
p2253
sg23
(lp2254
S'200 Edinburgh Rd. N.'
p2255
asba(i__main__
Stop
p2256
(dp2257
g3
S'43.542622'
p2258
sg5
(lp2259
S'Route20'
p2260
asg21
S'-80.258259'
p2261
sg23
(lp2262
S'Paisley St. at Yorkshire St. N.'
p2263
asba(i__main__
Stop
p2264
(dp2265
g3
S'43.543326'
p2266
sg5
(lp2267
S'Route20'
p2268
asg21
S'-80.256844'
p2269
sg23
(lp2270
S'Paisley St. at Glasgow St.'
p2271
asba(i__main__
Stop
p2272
(dp2273
g3
S'43.545390'
p2274
sg5
(lp2275
S'Route20'
p2276
asg21
S'-80.252122'
p2277
sg23
(lp2278
S'Paisley St. at Norfolk St.'
p2279
asba(i__main__
Stop
p2280
(dp2281
g3
S'43.545180'
p2282
sg5
(lp2283
S'Route21'
p2284
asg21
S'-80.24605'
p2285
sg23
(lp2286
S'Guelph Central Station'
p2287
asba(i__main__
Stop
p2288
(dp2289
g3
S'43.542276'
p2290
sg5
(lp2291
S'Route21'
p2292
aS'Route8'
p2293
aS'Route16'
p2294
asg21
S'-80.243974'
p2295
sg23
(lp2296
S'Wellington St. W at K.F.C'
p2297
aS'Wellington St. at KFC'
p2298
asba(i__main__
Stop
p2299
(dp2300
g3
S'43.527351'
p2301
sg5
(lp2302
S'Route21'
p2303
aS'Route1A'
p2304
aS'Route6'
p2305
aS'Route7'
p2306
aS'Route5'
p2307
aS'Route16'
p2308
aS'Route Gordon Corridor'
p2309
asg21
S'-80.226173'
p2310
sg23
(lp2311
S'Gordon St. at Stone Rd. W.'
p2312
asba(i__main__
Stop
p2313
(dp2314
g3
S'43.525153'
p2315
sg5
(lp2316
S'Route21'
p2317
asg21
S'-80.221052'
p2318
sg23
(lp2319
S'Gordon St. at Harvard Rd.'
p2320
asba(i__main__
Stop
p2321
(dp2322
g3
S'43.522309'
p2323
sg5
(lp2324
S'Route21'
p2325
aS'Route1A'
p2326
aS'Route7'
p2327
aS'Route5'
p2328
aS'Route16'
p2329
aS'Route Gordon Corridor'
p2330
asg21
S'-80.213484'
p2331
sg23
(lp2332
S'Gordon St. at Kortright Rd. W'
p2333
aS'Gordon St. at Kortright Rd.'
p2334
asba(i__main__
Stop
p2335
(dp2336
g3
S'43.516595'
p2337
sg5
(lp2338
S'Route21'
p2339
aS'Route1A'
p2340
aS'Route5'
p2341
aS'Route16'
p2342
aS'Route Gordon Corridor'
p2343
asg21
S'-80.203694'
p2344
sg23
(lp2345
S'Gordon St. at Edinburgh Rd. S.'
p2346
asba(i__main__
Stop
p2347
(dp2348
g3
S'43.513888'
p2349
sg5
(lp2350
S'Route21'
p2351
aS'Route16'
p2352
aS'Route Gordon Corridor'
p2353
asg21
S'-80.19989'
p2354
sg23
(lp2355
S'Gordon St. at Arkell Rd.'
p2356
aS'Gordon @ Arkell'
p2357
asba(i__main__
Stop
p2358
(dp2359
g3
S'43.505161'
p2360
sg5
(lp2361
S'Route21'
p2362
aS'Route16'
p2363
aS'Route Gordon Corridor'
p2364
asg21
S'-80.194351'
p2365
sg23
(lp2366
S'Gordon St. at Clairfields Dr.'
p2367
aS'Gordon @ Clairfields'
p2368
asba(i__main__
Stop
p2369
(dp2370
g3
S'43.495554'
p2371
sg5
(lp2372
S'Route21'
p2373
asg21
S'-80.195861'
p2374
sg23
(lp2375
S'Bishop Macdonell High School'
p2376
asba(i__main__
Stop
p2377
(dp2378
g3
S'43.492751'
p2379
sg5
(lp2380
S'Route21'
p2381
aS'Route16'
p2382
asg21
S'-80.200238'
p2383
sg23
(lp2384
S'Laird Rd. at Clair Rd. W.'
p2385
asba(i__main__
Stop
p2386
(dp2387
g3
S'43.49437'
p2388
sg5
(lp2389
S'Route21'
p2390
aS'Route16'
p2391
asg21
S'-80.207405'
p2392
sg23
(lp2393
S'Southgate Dr. at Laird Rd.'
p2394
asba(i__main__
Stop
p2395
(dp2396
g3
S'43.497763'
p2397
sg5
(lp2398
S'Route21'
p2399
aS'Route16'
p2400
asg21
S'-80.211439'
p2401
sg23
(lp2402
S'125 Southgate Dr.'
p2403
asba(i__main__
Stop
p2404
(dp2405
g3
S'43.500192'
p2406
sg5
(lp2407
S'Route21'
p2408
aS'Route16'
p2409
asg21
S'-80.213584'
p2410
sg23
(lp2411
S'180 Southgate Dr.'
p2412
asba(i__main__
Stop
p2413
(dp2414
g3
S'43.502246'
p2415
sg5
(lp2416
S'Route21'
p2417
aS'Route16'
p2418
asg21
S'-80.217576'
p2419
sg23
(lp2420
S'310 Southgate Dr.'
p2421
asba(i__main__
Stop
p2422
(dp2423
g3
S'43.500098'
p2424
sg5
(lp2425
S'Route21'
p2426
aS'Route16'
p2427
asg21
S'-80.219979'
p2428
sg23
(lp2429
S'450 Southgate Dr.'
p2430
asba(i__main__
Stop
p2431
(dp2432
g3
S'43.497763'
p2433
sg5
(lp2434
S'Route21'
p2435
aS'Route16'
p2436
asg21
S'-80.21749'
p2437
sg23
(lp2438
S'525 Southgate Dr.'
p2439
asba(i__main__
Stop
p2440
(dp2441
g3
S'43.494526'
p2442
sg5
(lp2443
S'Route21'
p2444
aS'Route16'
p2445
asg21
S'-80.213713'
p2446
sg23
(lp2447
S'595 Southgate Dr.'
p2448
asba(i__main__
Stop
p2449
(dp2450
g3
S'43.49297'
p2451
sg5
(lp2452
S'Route21'
p2453
aS'Route16'
p2454
asg21
S'-80.209943'
p2455
sg23
(lp2456
S'679 Southgate Dr.'
p2457
asba(i__main__
Stop
p2458
(dp2459
g3
S'43.492192'
p2460
sg5
(lp2461
S'Route21'
p2462
aS'Route16'
p2463
asg21
S'-80.208765'
p2464
sg23
(lp2465
S'Southgate Dr. at Corporate Rd.'
p2466
asba(i__main__
Stop
p2467
(dp2468
g3
S'43.491034'
p2469
sg5
(lp2470
S'Route21'
p2471
aS'Route16'
p2472
asg21
S'-80.207102'
p2473
sg23
(lp2474
S'Southgate Dr. at Admiral Pl.'
p2475
asba(i__main__
Stop
p2476
(dp2477
g3
S'43.489566'
p2478
sg5
(lp2479
S'Route21'
p2480
aS'Route16'
p2481
asg21
S'-80.203991'
p2482
sg23
(lp2483
S'829 Southgate Dr.'
p2484
asba(i__main__
Stop
p2485
(dp2486
g3
S'43.492158'
p2487
sg5
(lp2488
S'Route21'
p2489
aS'Route16'
p2490
asg21
S'-80.200168'
p2491
sg23
(lp2492
S'300 Clair (Water Tower)'
p2493
asba(i__main__
Stop
p2494
(dp2495
g3
S'43.495285'
p2496
sg5
(lp2497
S'Route21'
p2498
aS'Route16'
p2499
asg21
S'-80.195641'
p2500
sg23
(lp2501
S'Bishop Macdonell High School'
p2502
asba(i__main__
Stop
p2503
(dp2504
g3
S'43.499368'
p2505
sg5
(lp2506
S'Route21'
p2507
asg21
S'-80.191593'
p2508
sg23
(lp2509
S'Gosling Gdns. at Food Basics'
p2510
asba(i__main__
Stop
p2511
(dp2512
g3
S'43.501366'
p2513
sg5
(lp2514
S'Route21'
p2515
asg21
S'-80.192967'
p2516
sg23
(lp2517
S'Gosling Gdns. Park'
p2518
asba(i__main__
Stop
p2519
(dp2520
g3
S'43.503521'
p2521
sg5
(lp2522
S'Route21'
p2523
asg21
S'-80.192967'
p2524
sg23
(lp2525
S'Gosling Gdns. at Clairfields Dr. W.'
p2526
asba(i__main__
Stop
p2527
(dp2528
g3
S'43.505801'
p2529
sg5
(lp2530
S'Route21'
p2531
asg21
S'-80.194376'
p2532
sg23
(lp2533
S'Gordon St. north of Clairfields Dr.'
p2534
asba(i__main__
Stop
p2535
(dp2536
g3
S'43.508565'
p2537
sg5
(lp2538
S'Route21'
p2539
asg21
S'-80.195517'
p2540
sg23
(lp2541
S'Gordon St. at Lowes Rd.'
p2542
asba(i__main__
Stop
p2543
(dp2544
g3
S'43.511755'
p2545
sg5
(lp2546
S'Route21'
p2547
asg21
S'-80.196955'
p2548
sg23
(lp2549
S'Gordon St. at Continuing Educ.'
p2550
asba(i__main__
Stop
p2551
(dp2552
g3
S'43.513988'
p2553
sg5
(lp2554
S'Route21'
p2555
asg21
S'-80.199607'
p2556
sg23
(lp2557
S'Gordon St. at Arkell Rd.'
p2558
asba(i__main__
Stop
p2559
(dp2560
g3
S'43.516628'
p2561
sg5
(lp2562
S'Route21'
p2563
asg21
S'-80.203268'
p2564
sg23
(lp2565
S'Gordon St. at Valley Rd.'
p2566
asba(i__main__
Stop
p2567
(dp2568
g3
S'43.5185'
p2569
sg5
(lp2570
S'Route21'
p2571
asg21
S'-80.205684'
p2572
sg23
(lp2573
S'Gordon St. at Landsdown Dr.'
p2574
asba(i__main__
Stop
p2575
(dp2576
g3
S'43.519667'
p2577
sg5
(lp2578
S'Route21'
p2579
asg21
S'-80.207481'
p2580
sg23
(lp2581
S'Gordon St. at Harts Lane'
p2582
asba(i__main__
Stop
p2583
(dp2584
g3
S'43.520911'
p2585
sg5
(lp2586
S'Route21'
p2587
asg21
S'-80.209892'
p2588
sg23
(lp2589
S'1030 Gordon St.'
p2590
asba(i__main__
Stop
p2591
(dp2592
g3
S'43.522721'
p2593
sg5
(lp2594
S'Route21'
p2595
aS'Route1B'
p2596
aS'Route7'
p2597
aS'Route5'
p2598
aS'Route56'
p2599
aS'Route58'
p2600
aS'Route16'
p2601
aS'Route Gordon Corridor'
p2602
asg21
S'-80.213719'
p2603
sg23
(lp2604
S'Gordon St. at Kortright Rd. W.'
p2605
aS'Gordon St. at Kortright Rd.'
p2606
asba(i__main__
Stop
p2607
(dp2608
g3
S'43.524266'
p2609
sg5
(lp2610
S'Route21'
p2611
aS'Route1B'
p2612
aS'Route7'
p2613
aS'Route5'
p2614
aS'Route56'
p2615
aS'Route58'
p2616
aS'Route16'
p2617
aS'Route Gordon Corridor'
p2618
asg21
S'-80.216865'
p2619
sg23
(lp2620
S'Gordon St. at Hands Dr.'
p2621
aS'Gordon @ Hands'
p2622
asba(i__main__
Stop
p2623
(dp2624
g3
S'43.525832'
p2625
sg5
(lp2626
S'Route21'
p2627
aS'Route1B'
p2628
aS'Route6'
p2629
aS'Route7'
p2630
aS'Route5'
p2631
aS'Route56'
p2632
aS'Route58'
p2633
aS'Route16'
p2634
aS'Route Gordon Corridor'
p2635
asg21
S'-80.221814'
p2636
sg23
(lp2637
S'Gordon St. at Monticello Cres.'
p2638
asba(i__main__
Stop
p2639
(dp2640
g3
S'43.527039'
p2641
sg5
(lp2642
S'Route21'
p2643
aS'Route5'
p2644
asg21
S'-80.224506'
p2645
sg23
(lp2646
S'University Centre'
p2647
aS'University Centre Arrive'
p2648
asba(i__main__
Stop
p2649
(dp2650
g3
S'43.530994'
p2651
sg5
(lp2652
S'Route21'
p2653
asg21
S'-80.230666'
p2654
sg23
(lp2655
S'Gordon St. at Vet College'
p2656
asba(i__main__
Stop
p2657
(dp2658
g3
S'43.532866'
p2659
sg5
(lp2660
S'Route21'
p2661
asg21
S'-80.233225'
p2662
sg23
(lp2663
S'Gordon St. at Macdonald Stewart Art Centre'
p2664
asba(i__main__
Stop
p2665
(dp2666
g3
S'43.536989'
p2667
sg5
(lp2668
S'Route21'
p2669
asg21
S'-80.239157'
p2670
sg23
(lp2671
S'Gordon St. at Dormie Lane'
p2672
asba(i__main__
Stop
p2673
(dp2674
g3
S'43.538176'
p2675
sg5
(lp2676
S'Route21'
p2677
asg21
S'-80.240871'
p2678
sg23
(lp2679
S'Gordon St. at Water St.'
p2680
asba(i__main__
Stop
p2681
(dp2682
g3
S'43.541072'
p2683
sg5
(lp2684
S'Route21'
p2685
asg21
S'-80.245144'
p2686
sg23
(lp2687
S'Gordon St. at Wellington St. W.'
p2688
asba(i__main__
Stop
p2689
(dp2690
g3
S'43.541909'
p2691
sg5
(lp2692
S'Route21'
p2693
asg21
S'-80.247552'
p2694
sg23
(lp2695
S"Gordon at Harvey's"
p2696
asba(i__main__
Stop
p2697
(dp2698
g3
S'43.546261'
p2699
sg5
(lp2700
S'Route21'
p2701
asg21
S'-80.249248'
p2702
sg23
(lp2703
S'Guelph Central Station'
p2704
asba(i__main__
Stop
p2705
(dp2706
g3
S'43.529524'
p2707
sg5
(lp2708
S'Route1A'
p2709
aS'Route1B'
p2710
aS'Route5'
p2711
aS'Route56'
p2712
aS'Route58'
p2713
aS'Route50'
p2714
aS'Route Gordon Corridor'
p2715
asg21
S'-80.224506'
p2716
sg23
(lp2717
S'University Centre'
p2718
aS'University Centre Arrive'
p2719
aS'University Dep'
p2720
asba(i__main__
Stop
p2721
(dp2722
g3
S'43.525457'
p2723
sg5
(lp2724
S'Route1A'
p2725
aS'Route6'
p2726
aS'Route7'
p2727
aS'Route5'
p2728
aS'Route16'
p2729
aS'Route Gordon Corridor'
p2730
asg21
S'-80.221185'
p2731
sg23
(lp2732
S'Gordon St. at Harvard Rd.'
p2733
asba(i__main__
Stop
p2734
(dp2735
g3
S'43.519571'
p2736
sg5
(lp2737
S'Route1A'
p2738
aS'Route5'
p2739
aS'Route16'
p2740
aS'Route Gordon Corridor'
p2741
asg21
S'-80.207956'
p2742
sg23
(lp2743
S'Gordon St. at Harts Lane'
p2744
asba(i__main__
Stop
p2745
(dp2746
g3
S'43.518045'
p2747
sg5
(lp2748
S'Route1A'
p2749
aS'Route5'
p2750
aS'Route16'
p2751
aS'Route Gordon Corridor'
p2752
asg21
S'-80.205824'
p2753
sg23
(lp2754
S'1155 Gordon St.'
p2755
asba(i__main__
Stop
p2756
(dp2757
g3
S'43.513692'
p2758
sg5
(lp2759
S'Route1A'
p2760
asg21
S'-80.206781'
p2761
sg23
(lp2762
S'Edinburgh Rd. S. at Carrington Dr.'
p2763
asba(i__main__
Stop
p2764
(dp2765
g3
S'43.511637'
p2766
sg5
(lp2767
S'Route1A'
p2768
asg21
S'-80.209561'
p2769
sg23
(lp2770
S'Edinburgh Rd. S. at Rickson Ave.'
p2771
asba(i__main__
Stop
p2772
(dp2773
g3
S'43.511074'
p2774
sg5
(lp2775
S'Route1A'
p2776
asg21
S'-80.213783'
p2777
sg23
(lp2778
S'Edinburgh Rd. S. at Ginger Crt.'
p2779
asba(i__main__
Stop
p2780
(dp2781
g3
S'43.512621'
p2782
sg5
(lp2783
S'Route1A'
p2784
asg21
S'-80.218822'
p2785
sg23
(lp2786
S'Edinburgh Rd. S. at Rogers Rd.'
p2787
asba(i__main__
Stop
p2788
(dp2789
g3
S'43.516156'
p2790
sg5
(lp2791
S'Route1A'
p2792
asg21
S'-80.226104'
p2793
sg23
(lp2794
S'Edinburgh Rd. S. at Koch Dr.'
p2795
asba(i__main__
Stop
p2796
(dp2797
g3
S'43.517591'
p2798
sg5
(lp2799
S'Route1A'
p2800
asg21
S'-80.230666'
p2801
sg23
(lp2802
S'Edinburgh Rd. S. at Laurelwood Crt.'
p2803
asba(i__main__
Stop
p2804
(dp2805
g3
S'43.517495'
p2806
sg5
(lp2807
S'Route1A'
p2808
aS'Route6'
p2809
asg21
S'-80.237179'
p2810
sg23
(lp2811
S'Stone Rd. W. at Stone Road Mall'
p2812
asba(i__main__
Stop
p2813
(dp2814
g3
S'43.515864'
p2815
sg5
(lp2816
S'Route1A'
p2817
asg21
S'-80.239383'
p2818
sg23
(lp2819
S'Stone Rd. W. at Scottsdale Dr.'
p2820
asba(i__main__
Stop
p2821
(dp2822
g3
S'43.517581'
p2823
sg5
(lp2824
S'Route1A'
p2825
asg21
S'-80.244796'
p2826
sg23
(lp2827
S'181 Janefield Ave.'
p2828
asba(i__main__
Stop
p2829
(dp2830
g3
S'43.519079'
p2831
sg5
(lp2832
S'Route1A'
p2833
asg21
S'-80.246963'
p2834
sg23
(lp2835
S'53 Janefield Ave.'
p2836
asba(i__main__
Stop
p2837
(dp2838
g3
S'43.521975'
p2839
sg5
(lp2840
S'Route1A'
p2841
asg21
S'-80.246085'
p2842
sg23
(lp2843
S'264 College Ave. W.'
p2844
asba(i__main__
Stop
p2845
(dp2846
g3
S'43.524248'
p2847
sg5
(lp2848
S'Route1A'
p2849
asg21
S'-80.243014'
p2850
sg23
(lp2851
S'College Ave. W. at Meadowcroft'
p2852
asba(i__main__
Stop
p2853
(dp2854
g3
S'43.529648'
p2855
sg5
(lp2856
S'Route1A'
p2857
asg21
S'-80.235787'
p2858
sg23
(lp2859
S'50 College Ave. W.'
p2860
asba(i__main__
Stop
p2861
(dp2862
g3
S'43.533525'
p2863
sg5
(lp2864
S'Route1A'
p2865
asg21
S'-80.230400'
p2866
sg23
(lp2867
S'College Ave. E. at MacDonald St.'
p2868
asba(i__main__
Stop
p2869
(dp2870
g3
S'43.535121'
p2871
sg5
(lp2872
S'Route1A'
p2873
asg21
S'-80.224988'
p2874
sg23
(lp2875
S'East Ring Rd. at Dundas Lane'
p2876
asba(i__main__
Stop
p2877
(dp2878
g3
S'43.533228'
p2879
sg5
(lp2880
S'Route1A'
p2881
asg21
S'-80.222342'
p2882
sg23
(lp2883
S'East Ring Rd. at Arboretum Rd.'
p2884
asba(i__main__
Stop
p2885
(dp2886
g3
S'43.533414'
p2887
sg5
(lp2888
S'Route1B'
p2889
asg21
S'-80.222235'
p2890
sg23
(lp2891
S'East Ring Rd. at Arboretum Rd.'
p2892
asba(i__main__
Stop
p2893
(dp2894
g3
S'43.535071'
p2895
sg5
(lp2896
S'Route1B'
p2897
asg21
S'-80.224477'
p2898
sg23
(lp2899
S'East Ring Rd. at Dundas Lane'
p2900
asba(i__main__
Stop
p2901
(dp2902
g3
S'43.534115'
p2903
sg5
(lp2904
S'Route1B'
p2905
asg21
S'-80.229942'
p2906
sg23
(lp2907
S'College Ave. E. at MacDonald St.'
p2908
asba(i__main__
Stop
p2909
(dp2910
g3
S'43.529727'
p2911
sg5
(lp2912
S'Route1B'
p2913
asg21
S'-80.235897'
p2914
sg23
(lp2915
S'College Ave. W. at Caledonia St.'
p2916
asba(i__main__
Stop
p2917
(dp2918
g3
S'43.525349'
p2919
sg5
(lp2920
S'Route1B'
p2921
asg21
S'-80.241837'
p2922
sg23
(lp2923
S'College Ave. W. at Edinburgh Rd.'
p2924
asba(i__main__
Stop
p2925
(dp2926
g3
S'43.521571'
p2927
sg5
(lp2928
S'Route1B'
p2929
asg21
S'-80.247137'
p2930
sg23
(lp2931
S'College Ave. W. at Centennial'
p2932
asba(i__main__
Stop
p2933
(dp2934
g3
S'43.517868'
p2935
sg5
(lp2936
S'Route1B'
p2937
asg21
S'-80.245637'
p2938
sg23
(lp2939
S'129 Janefield Ave.'
p2940
asba(i__main__
Stop
p2941
(dp2942
g3
S'43.516872'
p2943
sg5
(lp2944
S'Route1B'
p2945
asg21
S'-80.240944'
p2946
sg23
(lp2947
S'Janefield Ave. at Scottsdale Dr.'
p2948
asba(i__main__
Stop
p2949
(dp2950
g3
S'43.516543'
p2951
sg5
(lp2952
S'Route1B'
p2953
aS'Route58'
p2954
asg21
S'-80.229338'
p2955
sg23
(lp2956
S'583 Edinburgh Rd. S.'
p2957
asba(i__main__
Stop
p2958
(dp2959
g3
S'43.515674'
p2960
sg5
(lp2961
S'Route1B'
p2962
aS'Route58'
p2963
asg21
S'-80.223705'
p2964
sg23
(lp2965
S'685 Edinburgh Rd. S.'
p2966
asba(i__main__
Stop
p2967
(dp2968
g3
S'43.512606'
p2969
sg5
(lp2970
S'Route1B'
p2971
asg21
S'-80.218928'
p2972
sg23
(lp2973
S'777 Edinburgh Rd. S.'
p2974
asba(i__main__
Stop
p2975
(dp2976
g3
S'43.510979'
p2977
sg5
(lp2978
S'Route1B'
p2979
asg21
S'-80.213604'
p2980
sg23
(lp2981
S'Edinburgh  Rd. S. at Ginger Crt.'
p2982
asba(i__main__
Stop
p2983
(dp2984
g3
S'43.511550'
p2985
sg5
(lp2986
S'Route1B'
p2987
asg21
S'-80.209314'
p2988
sg23
(lp2989
S'Edinburgh Rd. S. at Rickson Ave.'
p2990
asba(i__main__
Stop
p2991
(dp2992
g3
S'43.513666'
p2993
sg5
(lp2994
S'Route1B'
p2995
asg21
S'-80.206367'
p2996
sg23
(lp2997
S'Edinburgh Rd. S. at Carrington Dr.'
p2998
asba(i__main__
Stop
p2999
(dp3000
g3
S'43.516653'
p3001
sg5
(lp3002
S'Route1B'
p3003
aS'Route5'
p3004
aS'Route56'
p3005
aS'Route16'
p3006
aS'Route Gordon Corridor'
p3007
asg21
S'-80.203242'
p3008
sg23
(lp3009
S'Gordon St. at Valley Rd.'
p3010
aS'Gordon @ Valley'
p3011
asba(i__main__
Stop
p3012
(dp3013
g3
S'43.518854'
p3014
sg5
(lp3015
S'Route1B'
p3016
aS'Route5'
p3017
aS'Route56'
p3018
aS'Route16'
p3019
aS'Route Gordon Corridor'
p3020
asg21
S'-80.205813'
p3021
sg23
(lp3022
S'Gordon St. at Landsdown Dr.'
p3023
asba(i__main__
Stop
p3024
(dp3025
g3
S'43.519609'
p3026
sg5
(lp3027
S'Route1B'
p3028
aS'Route5'
p3029
aS'Route56'
p3030
aS'Route16'
p3031
aS'Route Gordon Corridor'
p3032
asg21
S'-80.207455'
p3033
sg23
(lp3034
S'Gordon St. at Harts Lane'
p3035
asba(i__main__
Stop
p3036
(dp3037
g3
S'43.520895'
p3038
sg5
(lp3039
S'Route1B'
p3040
aS'Route5'
p3041
aS'Route56'
p3042
aS'Route16'
p3043
aS'Route Gordon Corridor'
p3044
asg21
S'-80.210036'
p3045
sg23
(lp3046
S'941 Gordon St.'
p3047
aS'1030 Gordon St.'
p3048
asba(i__main__
Stop
p3049
(dp3050
g3
S'43.527039'
p3051
sg5
(lp3052
S'Route1B'
p3053
aS'Route6'
p3054
aS'Route7'
p3055
asg21
S'-80.225188'
p3056
sg23
(lp3057
S'Gordon St. at Stone Rd. W.'
p3058
asba(i__main__
Stop
p3059
(dp3060
g3
S'43.549049'
p3061
sg5
(lp3062
S'Route12'
p3063
aS'Route13'
p3064
asg21
S'-80.250385'
p3065
sg23
(lp3066
S'Eramosa Rd. Bridge'
p3067
asba(i__main__
Stop
p3068
(dp3069
g3
S'43.553440'
p3070
sg5
(lp3071
S'Route12'
p3072
asg21
S'-80.250429'
p3073
sg23
(lp3074
S'Delhi St. at Eramosa Rd.'
p3075
asba(i__main__
Stop
p3076
(dp3077
g3
S'43.555478'
p3078
sg5
(lp3079
S'Route12'
p3080
asg21
S'-80.253263'
p3081
sg23
(lp3082
S'Delhi St. at Guelph General Hospital'
p3083
asba(i__main__
Stop
p3084
(dp3085
g3
S'43.558023'
p3086
sg5
(lp3087
S'Route12'
p3088
asg21
S'-80.256817'
p3089
sg23
(lp3090
S'Delhi St. at Homewood Health Centre'
p3091
asba(i__main__
Stop
p3092
(dp3093
g3
S'43.559730'
p3094
sg5
(lp3095
S'Route12'
p3096
asg21
S'-80.259149'
p3097
sg23
(lp3098
S'Delhi St. at Emma St.'
p3099
asba(i__main__
Stop
p3100
(dp3101
g3
S'43.561982'
p3102
sg5
(lp3103
S'Route12'
p3104
asg21
S'-80.256609'
p3105
sg23
(lp3106
S'Emma St. at Metcalfe St.'
p3107
asba(i__main__
Stop
p3108
(dp3109
g3
S'43.563510'
p3110
sg5
(lp3111
S'Route12'
p3112
asg21
S'-80.254526'
p3113
sg23
(lp3114
S'Emma St. at Stevenson St.'
p3115
asba(i__main__
Stop
p3116
(dp3117
g3
S'43.566155'
p3118
sg5
(lp3119
S'Route12'
p3120
asg21
S'-80.257454'
p3121
sg23
(lp3122
S'Speedvale Ave. E. at Stevenson St.'
p3123
asba(i__main__
Stop
p3124
(dp3125
g3
S'43.568988'
p3126
sg5
(lp3127
S'Route12'
p3128
asg21
S'-80.253555'
p3129
sg23
(lp3130
S'Speedvale Ave. E. at Renfield St.'
p3131
asba(i__main__
Stop
p3132
(dp3133
g3
S'43.570197'
p3134
sg5
(lp3135
S'Route12'
p3136
asg21
S'-80.251898'
p3137
sg23
(lp3138
S'Speedvale Ave. E. at Acorn Pl.'
p3139
asba(i__main__
Stop
p3140
(dp3141
g3
S'43.577375'
p3142
sg5
(lp3143
S'Route12'
p3144
asg21
S'-80.260566'
p3145
sg23
(lp3146
S'Woodlawn Rd. E. at Victoria Rd. N.'
p3147
asba(i__main__
Stop
p3148
(dp3149
g3
S'43.572923'
p3150
sg5
(lp3151
S'Route12'
p3152
asg21
S'-80.260722'
p3153
sg23
(lp3154
S'Windsor St. at Kingsley Crt.'
p3155
asba(i__main__
Stop
p3156
(dp3157
g3
S'43.570030'
p3158
sg5
(lp3159
S'Route12'
p3160
asg21
S'-80.262589'
p3161
sg23
(lp3162
S'Waverly Dr. at Stevenson St.'
p3163
asba(i__main__
Stop
p3164
(dp3165
g3
S'43.568068'
p3166
sg5
(lp3167
S'Route12'
p3168
asg21
S'-80.264664'
p3169
sg23
(lp3170
S'Metcalfe St. at Waverley Dr.'
p3171
asba(i__main__
Stop
p3172
(dp3173
g3
S'43.565996'
p3174
sg5
(lp3175
S'Route12'
p3176
asg21
S'-80.261803'
p3177
sg23
(lp3178
S'Metcalfe St. at Shaftesbury Ave.'
p3179
asba(i__main__
Stop
p3180
(dp3181
g3
S'43.564553'
p3182
sg5
(lp3183
S'Route12'
p3184
asg21
S'-80.260110'
p3185
sg23
(lp3186
S'Metcalfe St. at Speedvale  Ave.'
p3187
asba(i__main__
Stop
p3188
(dp3189
g3
S'43.563067'
p3190
sg5
(lp3191
S'Route12'
p3192
asg21
S'-80.261976'
p3193
sg23
(lp3194
S'Speedvale Ave. at Clive Ave.'
p3195
asba(i__main__
Stop
p3196
(dp3197
g3
S'43.561341'
p3198
sg5
(lp3199
S'Route12'
p3200
asg21
S'-80.261642'
p3201
sg23
(lp3202
S'Delhi St. at Phillip Ave.'
p3203
asba(i__main__
Stop
p3204
(dp3205
g3
S'43.559753'
p3206
sg5
(lp3207
S'Route12'
p3208
asg21
S'-80.259441'
p3209
sg23
(lp3210
S'Delhi St. at Emma St.'
p3211
asba(i__main__
Stop
p3212
(dp3213
g3
S'43.557461'
p3214
sg5
(lp3215
S'Route12'
p3216
asg21
S'-80.256245'
p3217
sg23
(lp3218
S'Delhi St. at Homewood Health Centre'
p3219
asba(i__main__
Stop
p3220
(dp3221
g3
S'43.555378'
p3222
sg5
(lp3223
S'Route12'
p3224
asg21
S'-80.253359'
p3225
sg23
(lp3226
S'Delhi St. at Spring St.'
p3227
asba(i__main__
Stop
p3228
(dp3229
g3
S'43.553174'
p3230
sg5
(lp3231
S'Route12'
p3232
asg21
S'-80.250307'
p3233
sg23
(lp3234
S'Delhi St. at Eramosa Rd.'
p3235
asba(i__main__
Stop
p3236
(dp3237
g3
S'43.549165'
p3238
sg5
(lp3239
S'Route12'
p3240
aS'Route13'
p3241
asg21
S'-80.250571'
p3242
sg23
(lp3243
S'Eramosa Rd. at Arthur St.'
p3244
asba(i__main__
Stop
p3245
(dp3246
g3
S'43.5290634619'
p3247
sg5
(lp3248
S'Route6'
p3249
asg21
S'-80.2238410411'
p3250
sg23
(lp3251
S'University Centre'
p3252
asba(i__main__
Stop
p3253
(dp3254
g3
S'43.523990'
p3255
sg5
(lp3256
S'Route6'
p3257
asg21
S'-80.223439'
p3258
sg23
(lp3259
S'Harvard Rd. at Shakespeare Arms'
p3260
asba(i__main__
Stop
p3261
(dp3262
g3
S'43.520793'
p3263
sg5
(lp3264
S'Route6'
p3265
asg21
S'-80.228167'
p3266
sg23
(lp3267
S'Harvard Rd. at Princeton Pl.'
p3268
asba(i__main__
Stop
p3269
(dp3270
g3
S'43.518262'
p3271
sg5
(lp3272
S'Route6'
p3273
asg21
S'-80.228565'
p3274
sg23
(lp3275
S'Harvard Rd. at Youngman Dr.'
p3276
asba(i__main__
Stop
p3277
(dp3278
g3
S'43.517457'
p3279
sg5
(lp3280
S'Route6'
p3281
asg21
S'-80.230376'
p3282
sg23
(lp3283
S'Edinburgh Rd. at Laurelwood Crt.'
p3284
asba(i__main__
Stop
p3285
(dp3286
g3
S'43.514716'
p3287
sg5
(lp3288
S'Route6'
p3289
asg21
S'-80.238481'
p3290
sg23
(lp3291
S'Scottsdale Dr. at Stone Rd. W.'
p3292
asba(i__main__
Stop
p3293
(dp3294
g3
S'43.513792'
p3295
sg5
(lp3296
S'Route6'
p3297
asg21
S'-80.237204'
p3298
sg23
(lp3299
S'Scottsdale Dr. at Cole Rd.'
p3300
asba(i__main__
Stop
p3301
(dp3302
g3
S'43.512987'
p3303
sg5
(lp3304
S'Route6'
p3305
asg21
S'-80.235201'
p3306
sg23
(lp3307
S'Scottsdale Dr. at Ironwood Rd.'
p3308
asba(i__main__
Stop
p3309
(dp3310
g3
S'43.511151'
p3311
sg5
(lp3312
S'Route6'
p3313
asg21
S'-80.235094'
p3314
sg23
(lp3315
S'Ironwood Rd. at Steffler Park'
p3316
asba(i__main__
Stop
p3317
(dp3318
g3
S'43.508854'
p3319
sg5
(lp3320
S'Route6'
p3321
asg21
S'-80.232937'
p3322
sg23
(lp3323
S'Ironwood Rd. at Cole Rd.'
p3324
asba(i__main__
Stop
p3325
(dp3326
g3
S'43.507108'
p3327
sg5
(lp3328
S'Route6'
p3329
asg21
S'-80.229901'
p3330
sg23
(lp3331
S'Ironwood Rd. at Woodborough Rd.'
p3332
asba(i__main__
Stop
p3333
(dp3334
g3
S'43.505669'
p3335
sg5
(lp3336
S'Route6'
p3337
asg21
S'-80.227176'
p3338
sg23
(lp3339
S'Ironwood Rd. at Hilldale Cres.'
p3340
asba(i__main__
Stop
p3341
(dp3342
g3
S'43.507460'
p3343
sg5
(lp3344
S'Route6'
p3345
asg21
S'-80.225619'
p3346
sg23
(lp3347
S'Ironwood Rd. at Brookhaven Crt.'
p3348
asba(i__main__
Stop
p3349
(dp3350
g3
S'43.509886'
p3351
sg5
(lp3352
S'Route6'
p3353
asg21
S'-80.227975'
p3354
sg23
(lp3355
S'Ironwood Rd. at Kortright Rd.'
p3356
asba(i__main__
Stop
p3357
(dp3358
g3
S'43.511745'
p3359
sg5
(lp3360
S'Route6'
p3361
asg21
S'-80.230319'
p3362
sg23
(lp3363
S'Scottsdale Dr. at Steffler Dr'
p3364
asba(i__main__
Stop
p3365
(dp3366
g3
S'43.513799'
p3367
sg5
(lp3368
S'Route6'
p3369
asg21
S'-80.236892'
p3370
sg23
(lp3371
S'711 Scottsdale Dr.'
p3372
asba(i__main__
Stop
p3373
(dp3374
g3
S'43.514732'
p3375
sg5
(lp3376
S'Route6'
p3377
asg21
S'-80.238189'
p3378
sg23
(lp3379
S'632 Scottsdale Dr.'
p3380
asba(i__main__
Stop
p3381
(dp3382
g3
S'43.517933'
p3383
sg5
(lp3384
S'Route6'
p3385
asg21
S'-80.228173'
p3386
sg23
(lp3387
S'Youngman Dr. at Harvard Rd.'
p3388
asba(i__main__
Stop
p3389
(dp3390
g3
S'43.520745'
p3391
sg5
(lp3392
S'Route6'
p3393
asg21
S'-80.228014'
p3394
sg23
(lp3395
S'Harvard Rd. at Princeton Pl.'
p3396
asba(i__main__
Stop
p3397
(dp3398
g3
S'43.522439'
p3399
sg5
(lp3400
S'Route6'
p3401
asg21
S'-80.225757'
p3402
sg23
(lp3403
S'Harvard Rd. at Rickson Ave.'
p3404
asba(i__main__
Stop
p3405
(dp3406
g3
S'43.524268'
p3407
sg5
(lp3408
S'Route6'
p3409
asg21
S'-80.221632'
p3410
sg23
(lp3411
S'35 Harvard Ave. at Plaza'
p3412
asba(i__main__
Stop
p3413
(dp3414
g3
S'43.5290001927'
p3415
sg5
(lp3416
S'Route6'
p3417
asg21
S'-80.2237748815'
p3418
sg23
(lp3419
S'University Centre'
p3420
asba(i__main__
Stop
p3421
(dp3422
g3
S'43.5290189503'
p3423
sg5
(lp3424
S'Route7'
p3425
asg21
S'-80.2237676879'
p3426
sg23
(lp3427
S'University Centre'
p3428
asba(i__main__
Stop
p3429
(dp3430
g3
S'43.520139'
p3431
sg5
(lp3432
S'Route7'
p3433
asg21
S'-80.214969'
p3434
sg23
(lp3435
S'Kortright Rd. at Yewholme Dr.'
p3436
asba(i__main__
Stop
p3437
(dp3438
g3
S'43.516957'
p3439
sg5
(lp3440
S'Route7'
p3441
asg21
S'-80.216712'
p3442
sg23
(lp3443
S'Kortright Rd. at Rickson Ave.'
p3444
asba(i__main__
Stop
p3445
(dp3446
g3
S'43.514366'
p3447
sg5
(lp3448
S'Route7'
p3449
asg21
S'-80.220191'
p3450
sg23
(lp3451
S'Kortright Rd. at Edinburgh Rd. S.'
p3452
asba(i__main__
Stop
p3453
(dp3454
g3
S'43.511157'
p3455
sg5
(lp3456
S'Route7'
p3457
asg21
S'-80.224909'
p3458
sg23
(lp3459
S'Kortright Rd. at Hanlon Creek Park'
p3460
asba(i__main__
Stop
p3461
(dp3462
g3
S'43.509150'
p3463
sg5
(lp3464
S'Route7'
p3465
asg21
S'-80.230868'
p3466
sg23
(lp3467
S'555 Kortright Rd.'
p3468
asba(i__main__
Stop
p3469
(dp3470
g3
S'43.507161'
p3471
sg5
(lp3472
S'Route7'
p3473
asg21
S'-80.233591'
p3474
sg23
(lp3475
S'Kortright Rd. at Hanlon Rd.'
p3476
asba(i__main__
Stop
p3477
(dp3478
g3
S'43.505301'
p3479
sg5
(lp3480
S'Route7'
p3481
asg21
S'-80.237312'
p3482
sg23
(lp3483
S'Downey Rd. at Woodland Glen Dr.'
p3484
asba(i__main__
Stop
p3485
(dp3486
g3
S'43.504418'
p3487
sg5
(lp3488
S'Route7'
p3489
asg21
S'-80.242239'
p3490
sg23
(lp3491
S'Niska Rd. opposite Tanager Dr.'
p3492
asba(i__main__
Stop
p3493
(dp3494
g3
S'43.503350'
p3495
sg5
(lp3496
S'Route7'
p3497
asg21
S'-80.246134'
p3498
sg23
(lp3499
S'Ptarmigan Dr. at Niska Rd.'
p3500
asba(i__main__
Stop
p3501
(dp3502
g3
S'43.499663'
p3503
sg5
(lp3504
S'Route7'
p3505
asg21
S'-80.244210'
p3506
sg23
(lp3507
S'Ptarmigan Dr. at Pheasant Run Dr.'
p3508
asba(i__main__
Stop
p3509
(dp3510
g3
S'43.499782'
p3511
sg5
(lp3512
S'Route7'
p3513
asg21
S'-80.237947'
p3514
sg23
(lp3515
S'Ptarmigan Dr. at Downey Rd.'
p3516
asba(i__main__
Stop
p3517
(dp3518
g3
S'43.502415'
p3519
sg5
(lp3520
S'Route7'
p3521
asg21
S'-80.239046'
p3522
sg23
(lp3523
S'Downey Rd. at Hazelwood Dr.'
p3524
asba(i__main__
Stop
p3525
(dp3526
g3
S'43.504842'
p3527
sg5
(lp3528
S'Route7'
p3529
asg21
S'-80.237961'
p3530
sg23
(lp3531
S'Downey Rd. at Niska Rd.'
p3532
asba(i__main__
Stop
p3533
(dp3534
g3
S'43.506931'
p3535
sg5
(lp3536
S'Route7'
p3537
asg21
S'-80.233511'
p3538
sg23
(lp3539
S'Kortright Rd. at Hanlon Rd.'
p3540
asba(i__main__
Stop
p3541
(dp3542
g3
S'43.508986'
p3543
sg5
(lp3544
S'Route7'
p3545
asg21
S'-80.230697'
p3546
sg23
(lp3547
S'Kortright Rd. at Plaza'
p3548
asba(i__main__
Stop
p3549
(dp3550
g3
S'43.511345'
p3551
sg5
(lp3552
S'Route7'
p3553
asg21
S'-80.223941'
p3554
sg23
(lp3555
S'Kortright Rd. at Hanlon Creek Park'
p3556
asba(i__main__
Stop
p3557
(dp3558
g3
S'43.514312'
p3559
sg5
(lp3560
S'Route7'
p3561
aS'Route58'
p3562
asg21
S'-80.219867'
p3563
sg23
(lp3564
S'Kortright Rd. at Edinburgh Rd. S.'
p3565
asba(i__main__
Stop
p3566
(dp3567
g3
S'43.516883'
p3568
sg5
(lp3569
S'Route7'
p3570
aS'Route58'
p3571
asg21
S'-80.216423'
p3572
sg23
(lp3573
S'Kortright Rd. at Rickson Ave.'
p3574
asba(i__main__
Stop
p3575
(dp3576
g3
S'43.521627'
p3577
sg5
(lp3578
S'Route7'
p3579
aS'Route58'
p3580
asg21
S'-80.212938'
p3581
sg23
(lp3582
S'Kortright Rd. opposite Yewholme Dr.'
p3583
asba(i__main__
Stop
p3584
(dp3585
g3
S'43.5289652518'
p3586
sg5
(lp3587
S'Route7'
p3588
asg21
S'-80.2237220979'
p3589
sg23
(lp3590
S'University Centre'
p3591
asba(i__main__
Stop
p3592
(dp3593
g3
S'43.555657'
p3594
sg5
(lp3595
S'Route13'
p3596
asg21
S'-80.249466'
p3597
sg23
(lp3598
S'Eramosa Rd. at St. Catharines St.'
p3599
asba(i__main__
Stop
p3600
(dp3601
g3
S'43.556495'
p3602
sg5
(lp3603
S'Route13'
p3604
asg21
S'-80.248788'
p3605
sg23
(lp3606
S'Metcalfe St. at Eramosa Rd.'
p3607
asba(i__main__
Stop
p3608
(dp3609
g3
S'43.554757'
p3610
sg5
(lp3611
S'Route13'
p3612
asg21
S'-80.246360'
p3613
sg23
(lp3614
S'Metcalfe St. at Lemon St.'
p3615
asba(i__main__
Stop
p3616
(dp3617
g3
S'43.553027'
p3618
sg5
(lp3619
S'Route13'
p3620
asg21
S'-80.243956'
p3621
sg23
(lp3622
S'Metcalfe St. at Palmer St.'
p3623
asba(i__main__
Stop
p3624
(dp3625
g3
S'43.551686'
p3626
sg5
(lp3627
S'Route13'
p3628
asg21
S'-80.242077'
p3629
sg23
(lp3630
S'Metcalfe St. at Grange St.'
p3631
asba(i__main__
Stop
p3632
(dp3633
g3
S'43.552399'
p3634
sg5
(lp3635
S'Route13'
p3636
asg21
S'-80.240832'
p3637
sg23
(lp3638
S'Grange St. at Clara St.'
p3639
asba(i__main__
Stop
p3640
(dp3641
g3
S'43.553898'
p3642
sg5
(lp3643
S'Route13'
p3644
asg21
S'-80.238831'
p3645
sg23
(lp3646
S'Grange St. at Louisa St'
p3647
asba(i__main__
Stop
p3648
(dp3649
g3
S'43.554622'
p3650
sg5
(lp3651
S'Route13'
p3652
asg21
S'-80.237833'
p3653
sg23
(lp3654
S'Grange St. at Stevenson St.'
p3655
asba(i__main__
Stop
p3656
(dp3657
g3
S'43.558258'
p3658
sg5
(lp3659
S'Route13'
p3660
asg21
S'-80.240005'
p3661
sg23
(lp3662
S'Cassino Ave. at William St.'
p3663
asba(i__main__
Stop
p3664
(dp3665
g3
S'43.561453'
p3666
sg5
(lp3667
S'Route13'
p3668
asg21
S'-80.235804'
p3669
sg23
(lp3670
S'Cassino Ave. at Palermo Cres.'
p3671
asba(i__main__
Stop
p3672
(dp3673
g3
S'43.562886'
p3674
sg5
(lp3675
S'Route13'
p3676
asg21
S'-80.234699'
p3677
sg23
(lp3678
S'Cassino Ave. at Hadati Rd.'
p3679
asba(i__main__
Stop
p3680
(dp3681
g3
S'43.564485'
p3682
sg5
(lp3683
S'Route13'
p3684
asg21
S'-80.237757'
p3685
sg23
(lp3686
S'Hadati Rd. at Yeats Crt.'
p3687
asba(i__main__
Stop
p3688
(dp3689
g3
S'43.563892'
p3690
sg5
(lp3691
S'Route13'
p3692
asg21
S'-80.240402'
p3693
sg23
(lp3694
S'Hadati Rd. at Victoria Rd. N.'
p3695
asba(i__main__
Stop
p3696
(dp3697
g3
S'43.565338'
p3698
sg5
(lp3699
S'Route13'
p3700
aS'Route3A'
p3701
asg21
S'-80.241265'
p3702
sg23
(lp3703
S'Eastview Rd. at Glenburnie Dr.'
p3704
aS'Eastview Rd. at Mountford Dr.'
p3705
asba(i__main__
Stop
p3706
(dp3707
g3
S'43.567369'
p3708
sg5
(lp3709
S'Route13'
p3710
aS'Route3A'
p3711
asg21
S'-80.238478'
p3712
sg23
(lp3713
S'Eastview Rd. at Mountford Dr.'
p3714
aS'Eastview Rd. at Auden Rd.'
p3715
asba(i__main__
Stop
p3716
(dp3717
g3
S'43.568800'
p3718
sg5
(lp3719
S'Route13'
p3720
asg21
S'-80.231242'
p3721
sg23
(lp3722
S'Starwood Dr. at Watt St.'
p3723
asba(i__main__
Stop
p3724
(dp3725
g3
S'43.567812'
p3726
sg5
(lp3727
S'Route13'
p3728
asg21
S'-80.232014'
p3729
sg23
(lp3730
S'Watt St. at Auden Rd.'
p3731
asba(i__main__
Stop
p3732
(dp3733
g3
S'43.568895'
p3734
sg5
(lp3735
S'Route13'
p3736
asg21
S'-80.234823'
p3737
sg23
(lp3738
S'Auden Rd. at Eastview Rd.'
p3739
asba(i__main__
Stop
p3740
(dp3741
g3
S'43.567445'
p3742
sg5
(lp3743
S'Route13'
p3744
asg21
S'-80.248003'
p3745
sg23
(lp3746
S'Eramosa Rd. at Orchard Cres.'
p3747
asba(i__main__
Stop
p3748
(dp3749
g3
S'43.562369'
p3750
sg5
(lp3751
S'Route13'
p3752
asg21
S'-80.248754'
p3753
sg23
(lp3754
S'Eramosa Rd. at Meyer Dr.'
p3755
asba(i__main__
Stop
p3756
(dp3757
g3
S'43.559599'
p3758
sg5
(lp3759
S'Route13'
p3760
asg21
S'-80.249172'
p3761
sg23
(lp3762
S'Eramosa Rd. at Stevenson St.'
p3763
asba(i__main__
Stop
p3764
(dp3765
g3
S'43.556180'
p3766
sg5
(lp3767
S'Route13'
p3768
asg21
S'-80.249666'
p3769
sg23
(lp3770
S'Eramosa Rd. at Metcalfe St.'
p3771
asba(i__main__
Stop
p3772
(dp3773
g3
S'43.547576'
p3774
sg5
(lp3775
S'Route3A'
p3776
asg21
S'-80.266172'
p3777
sg23
(lp3778
S'Westmount Rd. at Lourdes'
p3779
asba(i__main__
Stop
p3780
(dp3781
g3
S'43.550057'
p3782
sg5
(lp3783
S'Route3A'
p3784
asg21
S'-80.269504'
p3785
sg23
(lp3786
S'Westmount Rd. at Division St.'
p3787
asba(i__main__
Stop
p3788
(dp3789
g3
S'43.548167'
p3790
sg5
(lp3791
S'Route3A'
p3792
asg21
S'-80.266982'
p3793
sg23
(lp3794
S"St. Joseph's Health Centre"
p3795
asba(i__main__
Stop
p3796
(dp3797
g3
S'43.550132'
p3798
sg5
(lp3799
S'Route3A'
p3800
asg21
S'-80.269632'
p3801
sg23
(lp3802
S'Westmount Rd. at Speedvale Ave. W.'
p3803
asba(i__main__
Stop
p3804
(dp3805
g3
S'43.553416'
p3806
sg5
(lp3807
S'Route3A'
p3808
asg21
S'-80.274223'
p3809
sg23
(lp3810
S'Kathleen St. at June Ave.'
p3811
asba(i__main__
Stop
p3812
(dp3813
g3
S'43.556149'
p3814
sg5
(lp3815
S'Route3A'
p3816
asg21
S'-80.273176'
p3817
sg23
(lp3818
S'Bailey Ave. at Nicklin Rd.'
p3819
asba(i__main__
Stop
p3820
(dp3821
g3
S'43.560098'
p3822
sg5
(lp3823
S'Route3A'
p3824
asg21
S'-80.282287'
p3825
sg23
(lp3826
S'Nicklin Rd. at Woodlawn Rd.'
p3827
asba(i__main__
Stop
p3828
(dp3829
g3
S'43.556747'
p3830
sg5
(lp3831
S'Route3A'
p3832
asg21
S'-80.277169'
p3833
sg23
(lp3834
S'Smart Centre Guelph'
p3835
asba(i__main__
Stop
p3836
(dp3837
g3
S'43.565031'
p3838
sg5
(lp3839
S'Route3A'
p3840
asg21
S'-80.280726'
p3841
sg23
(lp3842
S'21 Woodlawn Rd. E.'
p3843
asba(i__main__
Stop
p3844
(dp3845
g3
S'43.568502'
p3846
sg5
(lp3847
S'Route3A'
p3848
asg21
S'-80.272502'
p3849
sg23
(lp3850
S'Woodlawn Rd. E. at opposite Seniors Centre'
p3851
asba(i__main__
Stop
p3852
(dp3853
g3
S'43.569297'
p3854
sg5
(lp3855
S'Route3A'
p3856
asg21
S'-80.271413'
p3857
sg23
(lp3858
S'Woodlawn Rd. E. at Fairway Lane'
p3859
asba(i__main__
Stop
p3860
(dp3861
g3
S'43.572001'
p3862
sg5
(lp3863
S'Route3A'
p3864
asg21
S'-80.267661'
p3865
sg23
(lp3866
S'Woodlawn Rd. E. at Golfview Dr.'
p3867
asba(i__main__
Stop
p3868
(dp3869
g3
S'43.574348'
p3870
sg5
(lp3871
S'Route3A'
p3872
asg21
S'-80.264362'
p3873
sg23
(lp3874
S'Inverness Dr. at Glenbrook Dr.'
p3875
asba(i__main__
Stop
p3876
(dp3877
g3
S'43.576641'
p3878
sg5
(lp3879
S'Route3A'
p3880
asg21
S'-80.263157'
p3881
sg23
(lp3882
S'Inverness Dr. at Simmonds Dr.'
p3883
asba(i__main__
Stop
p3884
(dp3885
g3
S'43.579419'
p3886
sg5
(lp3887
S'Route3A'
p3888
asg21
S'-80.267052'
p3889
sg23
(lp3890
S'Victoria Rd. N. at Trillium Waldorf'
p3891
asba(i__main__
Stop
p3892
(dp3893
g3
S'43.580587'
p3894
sg5
(lp3895
S'Route3A'
p3896
asg21
S'-80.263922'
p3897
sg23
(lp3898
S'Victoria Rd. N. at Woodlawn Rd. E.'
p3899
asba(i__main__
Stop
p3900
(dp3901
g3
S'43.578088'
p3902
sg5
(lp3903
S'Route3A'
p3904
asg21
S'-80.260540'
p3905
sg23
(lp3906
S'Victoria Rd. N . at Delta St.'
p3907
asba(i__main__
Stop
p3908
(dp3909
g3
S'43.574215'
p3910
sg5
(lp3911
S'Route3A'
p3912
asg21
S'-80.255175'
p3913
sg23
(lp3914
S'Victoria Rd. N. at Speedvale Ave. E.'
p3915
asba(i__main__
Stop
p3916
(dp3917
g3
S'43.57071'
p3918
sg5
(lp3919
S'Route3A'
p3920
asg21
S'-80.250349'
p3921
sg23
(lp3922
S'Victoria Rd. N. at Eramosa Rd.'
p3923
asba(i__main__
Stop
p3924
(dp3925
g3
S'43.569232'
p3926
sg5
(lp3927
S'Route3A'
p3928
asg21
S'-80.248344'
p3929
sg23
(lp3930
S"Victoria Rd. N. at St. Paul's Church"
p3931
asba(i__main__
Stop
p3932
(dp3933
g3
S'43.566676'
p3934
sg5
(lp3935
S'Route3A'
p3936
asg21
S'-80.244711'
p3937
sg23
(lp3938
S'Eastview Rd. at Glenburnie Dr.'
p3939
asba(i__main__
Stop
p3940
(dp3941
g3
S'43.572509'
p3942
sg5
(lp3943
S'Route3A'
p3944
asg21
S'-80.231266'
p3945
sg23
(lp3946
S'Eastview Rd. at Summit Ridge Dr.'
p3947
asba(i__main__
Stop
p3948
(dp3949
g3
S'43.570255'
p3950
sg5
(lp3951
S'Route3A'
p3952
asg21
S'-80.234530'
p3953
sg23
(lp3954
S'Watson Pkwy N. at Grange Rd.'
p3955
asba(i__main__
Stop
p3956
(dp3957
g3
S'43.573466'
p3958
sg5
(lp3959
S'Route3A'
p3960
asg21
S'-80.217970'
p3961
sg23
(lp3962
S'Watson Pkwy N. at Fleming Rd.'
p3963
asba(i__main__
Stop
p3964
(dp3965
g3
S'43.570527'
p3966
sg5
(lp3967
S'Route3A'
p3968
asg21
S'-80.213770'
p3969
sg23
(lp3970
S'Watson Pkwy N. at Library'
p3971
asba(i__main__
Stop
p3972
(dp3973
g3
S'43.56144'
p3974
sg5
(lp3975
S'Route3A'
p3976
asg21
S'-80.210956'
p3977
sg23
(lp3978
S'York Rd. at Yorkhaven Pl.'
p3979
asba(i__main__
Stop
p3980
(dp3981
g3
S'43.557049'
p3982
sg5
(lp3983
S'Route3A'
p3984
asg21
S'-80.217005'
p3985
sg23
(lp3986
S'York Rd. at Royal City Jaycees Park'
p3987
asba(i__main__
Stop
p3988
(dp3989
g3
S'43.554908'
p3990
sg5
(lp3991
S'Route3A'
p3992
asg21
S'-80.219940'
p3993
sg23
(lp3994
S'York Rd. at Beaumont Cres.'
p3995
asba(i__main__
Stop
p3996
(dp3997
g3
S'43.551612'
p3998
sg5
(lp3999
S'Route3A'
p4000
asg21
S'-80.223573'
p4001
sg23
(lp4002
S'Victoria Rd. at York Rd.'
p4003
asba(i__main__
Stop
p4004
(dp4005
g3
S'43.539442'
p4006
sg5
(lp4007
S'Route3A'
p4008
asg21
S'-80.207876'
p4009
sg23
(lp4010
S'Stone Rd. E. at Victoria Rd. S.'
p4011
asba(i__main__
Stop
p4012
(dp4013
g3
S'43.533696'
p4014
sg5
(lp4015
S'Route3A'
p4016
asg21
S'-80.215470'
p4017
sg23
(lp4018
S'Stone Rd. E. at Arbour Medical Centre'
p4019
asba(i__main__
Stop
p4020
(dp4021
g3
S'43.530139'
p4022
sg5
(lp4023
S'Route3A'
p4024
asg21
S'-80.225670'
p4025
sg23
(lp4026
S'University Centre'
p4027
asba(i__main__
Stop
p4028
(dp4029
g3
S'43.541833'
p4030
sg5
(lp4031
S'Route5'
p4032
asg21
S'-80.248111'
p4033
sg23
(lp4034
S'Gordon St. at Nottingham St.'
p4035
asba(i__main__
Stop
p4036
(dp4037
g3
S'43.514317'
p4038
sg5
(lp4039
S'Route5'
p4040
asg21
S'-80.198502'
p4041
sg23
(lp4042
S'Arkell Rd. at Gordon St.'
p4043
asba(i__main__
Stop
p4044
(dp4045
g3
S'43.516206'
p4046
sg5
(lp4047
S'Route5'
p4048
asg21
S'-80.196032'
p4049
sg23
(lp4050
S'Arkell Rd. at Ridgeway  Ave.'
p4051
asba(i__main__
Stop
p4052
(dp4053
g3
S'43.517618'
p4054
sg5
(lp4055
S'Route5'
p4056
asg21
S'-80.190957'
p4057
sg23
(lp4058
S'Summerfield Dr. at Amsterdam Cres.'
p4059
asba(i__main__
Stop
p4060
(dp4061
g3
S'43.515529'
p4062
sg5
(lp4063
S'Route5'
p4064
asg21
S'-80.188602'
p4065
sg23
(lp4066
S'Summerfield Dr. at Cummings Crt.'
p4067
asba(i__main__
Stop
p4068
(dp4069
g3
S'43.516626'
p4070
sg5
(lp4071
S'Route5'
p4072
asg21
S'-80.184407'
p4073
sg23
(lp4074
S'Summerfield Dr. at Bright Lane'
p4075
asba(i__main__
Stop
p4076
(dp4077
g3
S'43.519835'
p4078
sg5
(lp4079
S'Route5'
p4080
asg21
S'-80.179976'
p4081
sg23
(lp4082
S'Summerfield Dr. at Victoria Rd. S.'
p4083
asba(i__main__
Stop
p4084
(dp4085
g3
S'43.515015'
p4086
sg5
(lp4087
S'Route5'
p4088
aS'Route56'
p4089
asg21
S'-80.175363'
p4090
sg23
(lp4091
S'Frederick Dr. at Waterford Dr.'
p4092
asba(i__main__
Stop
p4093
(dp4094
g3
S'43.511743'
p4095
sg5
(lp4096
S'Route5'
p4097
asg21
S'-80.177101'
p4098
sg23
(lp4099
S'Goodwin Dr. at Ray Cres.'
p4100
asba(i__main__
Stop
p4101
(dp4102
g3
S'43.508079'
p4103
sg5
(lp4104
S'Route5'
p4105
asg21
S'-80.181977'
p4106
sg23
(lp4107
S'Goodwin Dr. at Orin Reid Park'
p4108
asba(i__main__
Stop
p4109
(dp4110
g3
S'43.505911'
p4111
sg5
(lp4112
S'Route5'
p4113
asg21
S'-80.184901'
p4114
sg23
(lp4115
S'Goodwin Dr. at Sinclair St.'
p4116
asba(i__main__
Stop
p4117
(dp4118
g3
S'43.504005'
p4119
sg5
(lp4120
S'Route5'
p4121
asg21
S'-80.186972'
p4122
sg23
(lp4123
S'Goodwin Dr. at Darling Cres.'
p4124
asba(i__main__
Stop
p4125
(dp4126
g3
S'43.503149'
p4127
sg5
(lp4128
S'Route5'
p4129
asg21
S'-80.188012'
p4130
sg23
(lp4131
S'Goodwin Dr. at Eugene Dr.'
p4132
asba(i__main__
Stop
p4133
(dp4134
g3
S'43.504066'
p4135
sg5
(lp4136
S'Route5'
p4137
asg21
S'-80.190228'
p4138
sg23
(lp4139
S'Farley Dr. at Porter Dr.'
p4140
asba(i__main__
Stop
p4141
(dp4142
g3
S'43.508404'
p4143
sg5
(lp4144
S'Route5'
p4145
asg21
S'-80.192302'
p4146
sg23
(lp4147
S'Pine Ridge Dr. at Periwinkle Way'
p4148
asba(i__main__
Stop
p4149
(dp4150
g3
S'43.509005'
p4151
sg5
(lp4152
S'Route5'
p4153
aS'Route Gordon Corridor'
p4154
asg21
S'-80.195565'
p4155
sg23
(lp4156
S'Gordon St. at Lowes Rd.'
p4157
asba(i__main__
Stop
p4158
(dp4159
g3
S'43.511767'
p4160
sg5
(lp4161
S'Route5'
p4162
aS'Route16'
p4163
aS'Route Gordon Corridor'
p4164
asg21
S'-80.196885'
p4165
sg23
(lp4166
S'Gordon St. at Continuing Education'
p4167
asba(i__main__
Stop
p4168
(dp4169
g3
S'43.514027'
p4170
sg5
(lp4171
S'Route5'
p4172
aS'Route56'
p4173
aS'Route16'
p4174
aS'Route Gordon Corridor'
p4175
asg21
S'-80.199648'
p4176
sg23
(lp4177
S'Gordon St. at Arkell Rd.'
p4178
asba(i__main__
Stop
p4179
(dp4180
g3
S'43.541072'
p4181
sg5
(lp4182
S'Route5'
p4183
asg21
S'-80.245274'
p4184
sg23
(lp4185
S'Gordon St. at Wellington St.'
p4186
asba(i__main__
Stop
p4187
(dp4188
g3
S'43.541884'
p4189
sg5
(lp4190
S'Route5'
p4191
asg21
S'-80.247619'
p4192
sg23
(lp4193
S"Gordon St. at Harvey's"
p4194
asba(i__main__
Stop
p4195
(dp4196
g3
S'43.543346'
p4197
sg5
(lp4198
S'Route5'
p4199
aS'Route8'
p4200
aS'Route9'
p4201
asg21
S'-80.249107'
p4202
sg23
(lp4203
S'City Hall'
p4204
aS'Guelph City Hall'
p4205
asba(i__main__
Stop
p4206
(dp4207
g3
S'43.530139124615'
p4208
sg5
(lp4209
S'Route15'
p4210
asg21
S'-80.22567'
p4211
sg23
(lp4212
S'University Centre'
p4213
asba(i__main__
Stop
p4214
(dp4215
g3
S'43.527478'
p4216
sg5
(lp4217
S'Route15'
p4218
asg21
S'-80.226352'
p4219
sg23
(lp4220
S'Gordon St. at Stone Rd. W.'
p4221
asba(i__main__
Stop
p4222
(dp4223
g3
S'43.526145'
p4224
sg5
(lp4225
S'Route15'
p4226
aS'Route58'
p4227
aS'Route50'
p4228
asg21
S'-80.225538'
p4229
sg23
(lp4230
S'Stone Rd. W. at Gordon St.'
p4231
asba(i__main__
Stop
p4232
(dp4233
g3
S'43.524050'
p4234
sg5
(lp4235
S'Route15'
p4236
aS'Route58'
p4237
aS'Route50'
p4238
asg21
S'-80.228457'
p4239
sg23
(lp4240
S'Stone Rd. W. at Fire Hall'
p4241
asba(i__main__
Stop
p4242
(dp4243
g3
S'43.522019'
p4244
sg5
(lp4245
S'Route15'
p4246
aS'Route58'
p4247
aS'Route50'
p4248
asg21
S'-80.231231'
p4249
sg23
(lp4250
S'Stone Rd. W. at Zellers'
p4251
asba(i__main__
Stop
p4252
(dp4253
g3
S'43.517856'
p4254
sg5
(lp4255
S'Route15'
p4256
aS'Route50'
p4257
asg21
S'-80.236974'
p4258
sg23
(lp4259
S'Stone Rd. W. at Stone Rd Mall'
p4260
asba(i__main__
Stop
p4261
(dp4262
g3
S'43.516019'
p4263
sg5
(lp4264
S'Route15'
p4265
aS'Route50'
p4266
asg21
S'-80.239549'
p4267
sg23
(lp4268
S'Stone Rd. W. at Scottsdale Dr.'
p4269
asba(i__main__
Stop
p4270
(dp4271
g3
S'43.509914'
p4272
sg5
(lp4273
S'Route15'
p4274
asg21
S'-80.247323'
p4275
sg23
(lp4276
S'Stone Rd. W at Woodland Glen Dr.'
p4277
asba(i__main__
Stop
p4278
(dp4279
g3
S'43.510561'
p4280
sg5
(lp4281
S'Route15'
p4282
asg21
S'-80.250192'
p4283
sg23
(lp4284
S'College Ave. W. at Flanders Rd.'
p4285
asba(i__main__
Stop
p4286
(dp4287
g3
S'43.511738'
p4288
sg5
(lp4289
S'Route15'
p4290
asg21
S'-80.252804'
p4291
sg23
(lp4292
S'College Ave. W. at Conroy Cres.'
p4293
asba(i__main__
Stop
p4294
(dp4295
g3
S'43.513969'
p4296
sg5
(lp4297
S'Route15'
p4298
asg21
S'-80.256203'
p4299
sg23
(lp4300
S'College Ave. W. at Argyle Dr.'
p4301
asba(i__main__
Stop
p4302
(dp4303
g3
S'43.513974835'
p4304
sg5
(lp4305
S'Route15'
p4306
asg21
S'-80.2562593432'
p4307
sg23
(lp4308
S'506 College Ave. W.'
p4309
asba(i__main__
Stop
p4310
(dp4311
g3
S'43.519598'
p4312
sg5
(lp4313
S'Route15'
p4314
asg21
S'-80.249119'
p4315
sg23
(lp4316
S'College Ave. W. east of Hanlon'
p4317
asba(i__main__
Stop
p4318
(dp4319
g3
S'43.517968'
p4320
sg5
(lp4321
S'Route15'
p4322
aS'Route8'
p4323
asg21
S'-80.245711'
p4324
sg23
(lp4325
S'129 Janefield Ave.'
p4326
asba(i__main__
Stop
p4327
(dp4328
g3
S'43.516792'
p4329
sg5
(lp4330
S'Route15'
p4331
aS'Route8'
p4332
asg21
S'-80.240925'
p4333
sg23
(lp4334
S'Janefield Ave. at Scottsdale Dr.'
p4335
asba(i__main__
Stop
p4336
(dp4337
g3
S'43.520977257153'
p4338
sg5
(lp4339
S'Route15'
p4340
asg21
S'-80.23997'
p4341
sg23
(lp4342
S'Scottsdale Dr. at Wilsonview Ave.'
p4343
asba(i__main__
Stop
p4344
(dp4345
g3
S'43.522155872961'
p4346
sg5
(lp4347
S'Route15'
p4348
asg21
S'-80.23865'
p4349
sg23
(lp4350
S'Wilsonview Ave.'
p4351
asba(i__main__
Stop
p4352
(dp4353
g3
S'43.521444038444'
p4354
sg5
(lp4355
S'Route15'
p4356
asg21
S'-80.2361'
p4357
sg23
(lp4358
S'Edinburgh Rd at Chancellors Way'
p4359
asba(i__main__
Stop
p4360
(dp4361
g3
S'43.521656033755'
p4362
sg5
(lp4363
S'Route15'
p4364
asg21
S'-80.23126'
p4365
sg23
(lp4366
S'Stone Rd. opposite Zellers'
p4367
asba(i__main__
Stop
p4368
(dp4369
g3
S'43.524668620547'
p4370
sg5
(lp4371
S'Route15'
p4372
asg21
S'-80.22719'
p4373
sg23
(lp4374
S'95 Stone Rd. W.'
p4375
asba(i__main__
Stop
p4376
(dp4377
g3
S'43.5298048358'
p4378
sg5
(lp4379
S'Route15'
p4380
asg21
S'-80.2248992018'
p4381
sg23
(lp4382
S'University Centre'
p4383
asba(i__main__
Stop
p4384
(dp4385
g3
S'43.543617'
p4386
sg5
(lp4387
S'Route8'
p4388
asg21
S'-80.246479'
p4389
sg23
(lp4390
S'Wyndham St. at Farquhar St.'
p4391
asba(i__main__
Stop
p4392
(dp4393
g3
S'43.5382652'
p4394
sg5
(lp4395
S'Route8'
p4396
asg21
S'-80.24134308'
p4397
sg23
(lp4398
S'Gordon St. at Water St.'
p4399
asba(i__main__
Stop
p4400
(dp4401
g3
S'43.536163'
p4402
sg5
(lp4403
S'Route8'
p4404
asg21
S'-80.245144'
p4405
sg23
(lp4406
S'Water St. at McCrae Blvd.'
p4407
asba(i__main__
Stop
p4408
(dp4409
g3
S'43.535130'
p4410
sg5
(lp4411
S'Route8'
p4412
asg21
S'-80.246552'
p4413
sg23
(lp4414
S'Water St. at Maple St.'
p4415
asba(i__main__
Stop
p4416
(dp4417
g3
S'43.531946'
p4418
sg5
(lp4419
S'Route8'
p4420
asg21
S'-80.243610'
p4421
sg23
(lp4422
S'Maple St. at Forest St.'
p4423
asba(i__main__
Stop
p4424
(dp4425
g3
S'43.530027'
p4426
sg5
(lp4427
S'Route8'
p4428
asg21
S'-80.246148'
p4429
sg23
(lp4430
S'Forest St. at Park'
p4431
asba(i__main__
Stop
p4432
(dp4433
g3
S'43.527403'
p4434
sg5
(lp4435
S'Route8'
p4436
asg21
S'-80.244524'
p4437
sg23
(lp4438
S'Edinburgh Rd. S. at Maplewood Dr.'
p4439
asba(i__main__
Stop
p4440
(dp4441
g3
S'43.525295'
p4442
sg5
(lp4443
S'Route8'
p4444
asg21
S'-80.241992'
p4445
sg23
(lp4446
S'College Ave. W. at Edinburgh Rd.'
p4447
asba(i__main__
Stop
p4448
(dp4449
g3
S'43.521545'
p4450
sg5
(lp4451
S'Route8'
p4452
asg21
S'-80.247091'
p4453
sg23
(lp4454
S'College Ave. W. at Centennial'
p4455
asba(i__main__
Stop
p4456
(dp4457
g3
S'43.52097726'
p4458
sg5
(lp4459
S'Route8'
p4460
asg21
S'-80.23997247'
p4461
sg23
(lp4462
S'Scottsdale Dr. at Wilsonview Ave.'
p4463
asba(i__main__
Stop
p4464
(dp4465
g3
S'43.521683'
p4466
sg5
(lp4467
S'Route8'
p4468
asg21
S'-80.241866'
p4469
sg23
(lp4470
S'220 Scottsdale Dr.'
p4471
asba(i__main__
Stop
p4472
(dp4473
g3
S'43.52328'
p4474
sg5
(lp4475
S'Route8'
p4476
asg21
S'-80.243572'
p4477
sg23
(lp4478
S'Scottsdale Dr. at College Ave. W.'
p4479
asba(i__main__
Stop
p4480
(dp4481
g3
S'43.524313'
p4482
sg5
(lp4483
S'Route8'
p4484
asg21
S'-80.243011'
p4485
sg23
(lp4486
S'College Ave. W. at Meadowcroft'
p4487
asba(i__main__
Stop
p4488
(dp4489
g3
S'43.526849'
p4490
sg5
(lp4491
S'Route8'
p4492
asg21
S'-80.243384'
p4493
sg23
(lp4494
S'Edinburgh Rd. S. at Floral Dr.'
p4495
asba(i__main__
Stop
p4496
(dp4497
g3
S'43.528513'
p4498
sg5
(lp4499
S'Route8'
p4500
asg21
S'-80.245737'
p4501
sg23
(lp4502
S'Edinburgh Rd. S. at Lockyer Rd.'
p4503
asba(i__main__
Stop
p4504
(dp4505
g3
S'43.529964'
p4506
sg5
(lp4507
S'Route8'
p4508
asg21
S'-80.247792'
p4509
sg23
(lp4510
S'Edinburgh Rd. S. at Municipal St.'
p4511
asba(i__main__
Stop
p4512
(dp4513
g3
S'43.532367'
p4514
sg5
(lp4515
S'Route8'
p4516
asg21
S'-80.251159'
p4517
sg23
(lp4518
S'Edinburgh Rd. S. at Honey Cres.'
p4519
asba(i__main__
Stop
p4520
(dp4521
g3
S'43.535829'
p4522
sg5
(lp4523
S'Route8'
p4524
asg21
S'-80.253496'
p4525
sg23
(lp4526
S'Bristol St. at McGee St.'
p4527
asba(i__main__
Stop
p4528
(dp4529
g3
S'43.537985'
p4530
sg5
(lp4531
S'Route8'
p4532
asg21
S'-80.252973'
p4533
sg23
(lp4534
S'Yorkshire St. S. at Waterloo Ave.'
p4535
asba(i__main__
Stop
p4536
(dp4537
g3
S'43.539053'
p4538
sg5
(lp4539
S'Route8'
p4540
aS'Route9'
p4541
asg21
S'-80.252146'
p4542
sg23
(lp4543
S'Waterloo Ave. at Glasgow St.'
p4544
asba(i__main__
Stop
p4545
(dp4546
g3
S'43.541228'
p4547
sg5
(lp4548
S'Route8'
p4549
aS'Route9'
p4550
asg21
S'-80.249835'
p4551
sg23
(lp4552
S'Waterloo Ave. at Norfolk St.'
p4553
aS'Waterloo Ave. at Norfolk  St.'
p4554
asba(i__main__
Stop
p4555
(dp4556
g3
S'43.541423'
p4557
sg5
(lp4558
S'Route9'
p4559
asg21
S'-80.249839'
p4560
sg23
(lp4561
S'3 Waterloo Ave.'
p4562
asba(i__main__
Stop
p4563
(dp4564
g3
S'43.538905'
p4565
sg5
(lp4566
S'Route9'
p4567
asg21
S'-80.252519'
p4568
sg23
(lp4569
S'Waterloo Ave. at Glasgow St.'
p4570
asba(i__main__
Stop
p4571
(dp4572
g3
S'43.536579'
p4573
sg5
(lp4574
S'Route9'
p4575
asg21
S'-80.254987'
p4576
sg23
(lp4577
S'Waterloo Ave. at Yorkshire St.S.'
p4578
asba(i__main__
Stop
p4579
(dp4580
g3
S'43.535168'
p4581
sg5
(lp4582
S'Route9'
p4583
asg21
S'-80.256495'
p4584
sg23
(lp4585
S'225 Waterloo Ave.'
p4586
asba(i__main__
Stop
p4587
(dp4588
g3
S'43.531039'
p4589
sg5
(lp4590
S'Route9'
p4591
asg21
S'-80.260912'
p4592
sg23
(lp4593
S'Waterloo Ave. at Beachwood Ave.'
p4594
asba(i__main__
Stop
p4595
(dp4596
g3
S'43.531329'
p4597
sg5
(lp4598
S'Route9'
p4599
asg21
S'-80.260792'
p4600
sg23
(lp4601
S'387 Waterloo Ave.'
p4602
asba(i__main__
Stop
p4603
(dp4604
g3
S'43.522844'
p4605
sg5
(lp4606
S'Route9'
p4607
asg21
S'-80.267664'
p4608
sg23
(lp4609
S'Imperial Rd. S. at Wellington St. N.'
p4610
asba(i__main__
Stop
p4611
(dp4612
g3
S'43.523257'
p4613
sg5
(lp4614
S'Route9'
p4615
asg21
S'-80.275745'
p4616
sg23
(lp4617
S'Imperial Rd. S. at Stephanie Dr.'
p4618
asba(i__main__
Stop
p4619
(dp4620
g3
S'43.525287'
p4621
sg5
(lp4622
S'Route9'
p4623
asg21
S'-80.279945'
p4624
sg23
(lp4625
S'Imperial Rd. S. at Deerpath Dr.'
p4626
asba(i__main__
Stop
p4627
(dp4628
g3
S'43.525522'
p4629
sg5
(lp4630
S'Route9'
p4631
asg21
S'-80.284368'
p4632
sg23
(lp4633
S'Imperial Rd. S.  at Paisley St.'
p4634
asba(i__main__
Stop
p4635
(dp4636
g3
S'43.522527'
p4637
sg5
(lp4638
S'Route9'
p4639
asg21
S'-80.288064'
p4640
sg23
(lp4641
S'Paisley Rd. at Zehrs'
p4642
asba(i__main__
Stop
p4643
(dp4644
g3
S'43.522384'
p4645
sg5
(lp4646
S'Route9'
p4647
asg21
S'-80.281820'
p4648
sg23
(lp4649
S'Stephanie Dr. at Hollyberry Pl'
p4650
asba(i__main__
Stop
p4651
(dp4652
g3
S'43.522953'
p4653
sg5
(lp4654
S'Route9'
p4655
asg21
S'-80.276464'
p4656
sg23
(lp4657
S'Stephanie Dr. at Imperial Rd.'
p4658
asba(i__main__
Stop
p4659
(dp4660
g3
S'43.522296'
p4661
sg5
(lp4662
S'Route9'
p4663
asg21
S'-80.273921'
p4664
sg23
(lp4665
S'Imperial Rd. at West Acres Dr.'
p4666
asba(i__main__
Stop
p4667
(dp4668
g3
S'43.520752'
p4669
sg5
(lp4670
S'Route9'
p4671
asg21
S'-80.269868'
p4672
sg23
(lp4673
S'Imperial Rd. S. at Tim Hortons'
p4674
asba(i__main__
Stop
p4675
(dp4676
g3
S'43.522873'
p4677
sg5
(lp4678
S'Route9'
p4679
asg21
S'-80.267234'
p4680
sg23
(lp4681
S'Wellington St. W. at Wastewater Treatment Plant'
p4682
asba(i__main__
Stop
p4683
(dp4684
g3
S'43.531117'
p4685
sg5
(lp4686
S'Route9'
p4687
asg21
S'-80.260625'
p4688
sg23
(lp4689
S'364 Waterloo Rd.'
p4690
asba(i__main__
Stop
p4691
(dp4692
g3
S'43.533616'
p4693
sg5
(lp4694
S'Route9'
p4695
asg21
S'-80.257973'
p4696
sg23
(lp4697
S'Waterloo Ave. at St. Arnaud St.'
p4698
asba(i__main__
Stop
p4699
(dp4700
g3
S'43.536488'
p4701
sg5
(lp4702
S'Route9'
p4703
asg21
S'-80.254882'
p4704
sg23
(lp4705
S'180 Waterloo Ave.'
p4706
asba(i__main__
Stop
p4707
(dp4708
g3
S'43.533012'
p4709
sg5
(lp4710
S'Route56'
p4711
asg21
S'-80.197783'
p4712
sg23
(lp4713
S'1035 Victoria'
p4714
asba(i__main__
Stop
p4715
(dp4716
g3
S'43.523694'
p4717
sg5
(lp4718
S'Route56'
p4719
asg21
S'-80.1851'
p4720
sg23
(lp4721
S'Victoria at Arkell'
p4722
asba(i__main__
Stop
p4723
(dp4724
g3
S'43.519637'
p4725
sg5
(lp4726
S'Route56'
p4727
asg21
S'-80.179537'
p4728
sg23
(lp4729
S'Victoria @ Summerfield'
p4730
asba(i__main__
Stop
p4731
(dp4732
g3
S'43.517774'
p4733
sg5
(lp4734
S'Route56'
p4735
asg21
S'-80.176994'
p4736
sg23
(lp4737
S'Victoria Rd. S at Katemore Dr.'
p4738
asba(i__main__
Stop
p4739
(dp4740
g3
S'43.516704'
p4741
sg5
(lp4742
S'Route56'
p4743
asg21
S'-80.180326'
p4744
sg23
(lp4745
S'264 Colonial'
p4746
asba(i__main__
Stop
p4747
(dp4748
g3
S'43.518902'
p4749
sg5
(lp4750
S'Route56'
p4751
asg21
S'-80.183523'
p4752
sg23
(lp4753
S'Colonial North of Marsh'
p4754
asba(i__main__
Stop
p4755
(dp4756
g3
S'43.520837'
p4757
sg5
(lp4758
S'Route56'
p4759
asg21
S'-80.186929'
p4760
sg23
(lp4761
S'Colonial north of Bard Bv.'
p4762
asba(i__main__
Stop
p4763
(dp4764
g3
S'43.5300871'
p4765
sg5
(lp4766
S'Route57'
p4767
asg21
S'-80.22514689'
p4768
sg23
(lp4769
S'University Dep'
p4770
asba(i__main__
Stop
p4771
(dp4772
g3
S'43.52734677'
p4773
sg5
(lp4774
S'Route57'
p4775
asg21
S'-80.22615966'
p4776
sg23
(lp4777
S'Gordon St. at Stone Rd. W.'
p4778
asba(i__main__
Stop
p4779
(dp4780
g3
S'43.52544175'
p4781
sg5
(lp4782
S'Route57'
p4783
asg21
S'-80.22118988'
p4784
sg23
(lp4785
S'Gordon St. at Harvard Rd.'
p4786
asba(i__main__
Stop
p4787
(dp4788
g3
S'43.52403582'
p4789
sg5
(lp4790
S'Route57'
p4791
asg21
S'-80.2228434'
p4792
sg23
(lp4793
S'Harvard Rd. at Shakespeare Arms'
p4794
asba(i__main__
Stop
p4795
(dp4796
g3
S'43.5204771'
p4797
sg5
(lp4798
S'Route57'
p4799
asg21
S'-80.22858985'
p4800
sg23
(lp4801
S'Harvard Rd. at Princeton Pl.'
p4802
asba(i__main__
Stop
p4803
(dp4804
g3
S'43.51812986'
p4805
sg5
(lp4806
S'Route57'
p4807
asg21
S'-80.22837459'
p4808
sg23
(lp4809
S'Harvard Rd. at Youngman Dr.'
p4810
asba(i__main__
Stop
p4811
(dp4812
g3
S'43.51523937'
p4813
sg5
(lp4814
S'Route57'
p4815
asg21
S'-80.23184091'
p4816
sg23
(lp4817
S'Ironwood Rd. at Reid Crt.'
p4818
asba(i__main__
Stop
p4819
(dp4820
g3
S'43.51304815'
p4821
sg5
(lp4822
S'Route57'
p4823
asg21
S'-80.23445164'
p4824
sg23
(lp4825
S'711 Scottsdale Dr.'
p4826
asba(i__main__
Stop
p4827
(dp4828
g3
S'43.51324305'
p4829
sg5
(lp4830
S'Route57'
p4831
asg21
S'-80.2355045'
p4832
sg23
(lp4833
S'632 Scottsdale Dr.'
p4834
asba(i__main__
Stop
p4835
(dp4836
g3
S'43.51475093'
p4837
sg5
(lp4838
S'Route57'
p4839
asg21
S'-80.23819991'
p4840
sg23
(lp4841
S'Scottsdale @ Stone'
p4842
asba(i__main__
Stop
p4843
(dp4844
g3
S'43.51614704'
p4845
sg5
(lp4846
S'Route57'
p4847
asg21
S'-80.2385857'
p4848
sg23
(lp4849
S'372 Stone Rd. W.'
p4850
asba(i__main__
Stop
p4851
(dp4852
g3
S'43.51758919'
p4853
sg5
(lp4854
S'Route57'
p4855
asg21
S'-80.23664118'
p4856
sg23
(lp4857
S'Stone Rd. W. at Edinburgh Rd. S.'
p4858
asba(i__main__
Stop
p4859
(dp4860
g3
S'43.51946083'
p4861
sg5
(lp4862
S'Route57'
p4863
asg21
S'-80.23418163'
p4864
sg23
(lp4865
S'Stone Rd. opposite Zellers'
p4866
asba(i__main__
Stop
p4867
(dp4868
g3
S'43.52163401'
p4869
sg5
(lp4870
S'Route57'
p4871
asg21
S'-80.2312634'
p4872
sg23
(lp4873
S'95 Stone Rd. W.'
p4874
asba(i__main__
Stop
p4875
(dp4876
g3
S'43.52467'
p4877
sg5
(lp4878
S'Route57'
p4879
asg21
S'-80.22718783'
p4880
sg23
(lp4881
S'University Arr'
p4882
asba(i__main__
Stop
p4883
(dp4884
g3
S'43.52097726'
p4885
sg5
(lp4886
S'Route50'
p4887
asg21
S'-80.23997'
p4888
sg23
(lp4889
S'Scottsdale Dr. at Wilsonview Ave.'
p4890
asba(i__main__
Stop
p4891
(dp4892
g3
S'43.52215587'
p4893
sg5
(lp4894
S'Route50'
p4895
asg21
S'-80.23865'
p4896
sg23
(lp4897
S'Wilsonview Ave.'
p4898
asba(i__main__
Stop
p4899
(dp4900
g3
S'43.52144404'
p4901
sg5
(lp4902
S'Route50'
p4903
asg21
S'-80.2361'
p4904
sg23
(lp4905
S'Edinburgh Rd at Chancellors Way'
p4906
asba(i__main__
Stop
p4907
(dp4908
g3
S'43.52165603'
p4909
sg5
(lp4910
S'Route50'
p4911
asg21
S'-80.23126'
p4912
sg23
(lp4913
S'Stone Rd. opposite Zellers'
p4914
asba(i__main__
Stop
p4915
(dp4916
g3
S'43.52466862'
p4917
sg5
(lp4918
S'Route50'
p4919
asg21
S'-80.22719'
p4920
sg23
(lp4921
S'95 Stone Rd. W.'
p4922
asba(i__main__
Stop
p4923
(dp4924
g3
S'43.53013912'
p4925
sg5
(lp4926
S'Route50'
p4927
asg21
S'-80.22567'
p4928
sg23
(lp4929
S'University Centre'
p4930
asba(i__main__
Stop
p4931
(dp4932
g3
S'43.538302'
p4933
sg5
(lp4934
S'Route16'
p4935
asg21
S'-80.241373'
p4936
sg23
(lp4937
S'Gordon St. at Water St.'
p4938
asba(i__main__
Stop
p4939
(dp4940
g3
S'43.511734'
p4941
sg5
(lp4942
S'Route16'
p4943
aS'Route Gordon Corridor'
p4944
asg21
S'-80.197178'
p4945
sg23
(lp4946
S'1417Gordon'
p4947
asba(i__main__
Stop
p4948
(dp4949
g3
S'43.508884'
p4950
sg5
(lp4951
S'Route16'
p4952
aS'Route Gordon Corridor'
p4953
asg21
S'-80.19581'
p4954
sg23
(lp4955
S'Gordon @Lowes'
p4956
asba(i__main__
Stop
p4957
(dp4958
g3
S'43.503778'
p4959
sg5
(lp4960
S'Route16'
p4961
asg21
S'-80.195952'
p4962
sg23
(lp4963
S'25 Clairfields'
p4964
asba(i__main__
Stop
p4965
(dp4966
g3
S'43.498568'
p4967
sg5
(lp4968
S'Route16'
p4969
asg21
S'-80.199409'
p4970
sg23
(lp4971
S'Opposite 116 Clairfields'
p4972
asba(i__main__
Stop
p4973
(dp4974
g3
S'43.495645'
p4975
sg5
(lp4976
S'Route16'
p4977
asg21
S'-80.196711'
p4978
sg23
(lp4979
S'Clairfields @ Boulder CR.'
p4980
asba(i__main__
Stop
p4981
(dp4982
g3
S'43.499106'
p4983
sg5
(lp4984
S'Route16'
p4985
aS'Route Gordon Corridor'
p4986
asg21
S'-80.191290'
p4987
sg23
(lp4988
S'Gosling Gardens at Clair Rd. W.'
p4989
asba(i__main__
Stop
p4990
(dp4991
g3
S'43.501367'
p4992
sg5
(lp4993
S'Route16'
p4994
aS'Route Gordon Corridor'
p4995
asg21
S'-80.192958'
p4996
sg23
(lp4997
S'Gosling Garden Park'
p4998
asba(i__main__
Stop
p4999
(dp5000
g3
S'43.502542'
p5001
sg5
(lp5002
S'Route16'
p5003
aS'Route Gordon Corridor'
p5004
asg21
S'-80.194578'
p5005
sg23
(lp5006
S'Gosling Garden at Clairfields Dr. W.'
p5007
asba(i__main__
Stop
p5008
(dp5009
g3
S'43.506090'
p5010
sg5
(lp5011
S'Route16'
p5012
aS'Route Gordon Corridor'
p5013
asg21
S'-80.194374'
p5014
sg23
(lp5015
S'Gordon St. at Westminster Woods'
p5016
asba(i__main__
Stop
p5017
(dp5018
g3
S'43.508962'
p5019
sg5
(lp5020
S'Route16'
p5021
asg21
S'-80.19556'
p5022
sg23
(lp5023
S'Gordon @ Lowes'
p5024
asba(i__main__
Stop
p5025
(dp5026
g3
S'43.527335'
p5027
sg5
(lp5028
S'Route16'
p5029
asg21
S'-80.225692'
p5030
sg23
(lp5031
S'Gordon St. at South Ring Rd.'
p5032
asba(i__main__
Stop
p5033
(dp5034
g3
S'43.527055'
p5035
sg5
(lp5036
S'Route Gordon Corridor'
p5037
asg21
S'-80.225258'
p5038
sg23
(lp5039
S'Gordon St. at South Ring Rd. E.'
p5040
asba.